(lp0
(S'cppflags'
p1
ccopy_reg
_reconstructor
p2
(cino.utils
SpaceList
p3
c__builtin__
list
p4
(lp5
S'-mmcu=atmega328p'
p6
aS'-DF_CPU=16000000L'
p7
aS'-DARDUINO=105'
p8
aS'-I/usr/share/arduino/hardware/arduino/cores/arduino'
p9
aS'-ffunction-sections'
p10
aS'-fdata-sections'
p11
aS'-g'
p12
aS'-Os'
p13
aS'-w'
p14
aS'-I/usr/share/arduino/hardware/arduino/variants/standard'
p15
aS'-Ilib/MCP23S17'
p16
aS'-I/usr/share/arduino/libraries/EEPROM'
p17
aS'-I/usr/share/arduino/libraries/SPI'
p18
aS'-I/usr/share/arduino/hardware/arduino/cores/arduino'
p19
aS'-I/usr/share/arduino/hardware/arduino/cores/arduino/avr-libc'
p20
atp21
Rp22
tp23
a(S'cxx'
p24
S'/usr/share/arduino/hardware/tools/avr/bin/avr-g++'
p25
tp26
a(S'arduino_libraries_dir'
p27
S'/usr/share/arduino/libraries'
p28
tp29
a(S'avrdude'
p30
S'/usr/share/arduino/hardware/tools/avrdude'
p31
tp32
a(S'ar'
p33
S'/usr/share/arduino/hardware/tools/avr/bin/avr-ar'
p34
tp35
a(S'names'
p36
(dp37
S'cpp'
p38
S'%s.cpp'
p39
sS'obj'
p40
S'%s.o'
p41
sS'lib'
p42
S'lib%s.a'
p43
sS'deps'
p44
S'%s.d'
p45
stp46
a(S'ldflags'
p47
g2
(g3
g4
(lp48
g6
aS'-Wl,-Os'
p49
aS'-Wl,--gc-sections'
p50
atp51
Rp52
tp53
a(S'arduino_lib_version'
p54
g2
(cino.environment
Version
p55
c__builtin__
tuple
p56
(I1
I0
I5
tp57
tp58
Rp59
tp60
a(S'objcopy'
p61
S'/usr/share/arduino/hardware/tools/avr/bin/avr-objcopy'
p62
tp63
a(S'board_models'
p64
cino.environment
BoardModels
p65
((lp66
(lp67
S'uno'
p68
a(dp69
S'_coredir'
p70
S'/usr/share/arduino/hardware/arduino'
p71
sS'bootloader'
p72
(dp73
S'extended_fuses'
p74
S'0x05'
p75
sS'high_fuses'
p76
S'0xde'
p77
sS'low_fuses'
p78
S'0xff'
p79
sS'lock_bits'
p80
S'0x0F'
p81
sS'file'
p82
S'optiboot_atmega328.hex'
p83
sS'path'
p84
S'optiboot'
p85
sS'unlock_bits'
p86
S'0x3F'
p87
ssS'upload'
p88
(dp89
S'protocol'
p90
S'arduino'
p91
sS'maximum_size'
p92
S'32256'
p93
sS'speed'
p94
S'115200'
p95
ssS'name'
p96
S'Arduino Uno'
p97
sS'build'
p98
(dp99
S'core'
p100
S'arduino'
p101
sS'mcu'
p102
S'atmega328p'
p103
sS'f_cpu'
p104
S'16000000L'
p105
sS'variant'
p106
S'standard'
p107
ssaa(lp108
S'atmega328'
p109
a(dp110
g70
S'/usr/share/arduino/hardware/arduino'
p111
sS'bootloader'
p112
(dp113
S'extended_fuses'
p114
S'0x05'
p115
sS'high_fuses'
p116
S'0xDA'
p117
sS'low_fuses'
p118
S'0xFF'
p119
sS'lock_bits'
p120
S'0x0F'
p121
sS'file'
p122
S'ATmegaBOOT_168_atmega328.hex'
p123
sS'path'
p124
S'atmega'
p125
sS'unlock_bits'
p126
S'0x3F'
p127
ssS'upload'
p128
(dp129
S'protocol'
p130
S'arduino'
p131
sS'maximum_size'
p132
S'30720'
p133
sS'speed'
p134
S'57600'
p135
ssS'name'
p136
S'Arduino Duemilanove w/ ATmega328'
p137
sS'build'
p138
(dp139
S'core'
p140
S'arduino'
p141
sS'mcu'
p142
S'atmega328p'
p143
sS'f_cpu'
p144
S'16000000L'
p145
sS'variant'
p146
S'standard'
p147
ssaa(lp148
S'diecimila'
p149
a(dp150
g70
S'/usr/share/arduino/hardware/arduino'
p151
sS'bootloader'
p152
(dp153
S'extended_fuses'
p154
S'0x00'
p155
sS'high_fuses'
p156
S'0xdd'
p157
sS'low_fuses'
p158
S'0xff'
p159
sS'lock_bits'
p160
S'0x0F'
p161
sS'file'
p162
S'ATmegaBOOT_168_diecimila.hex'
p163
sS'path'
p164
S'atmega'
p165
sS'unlock_bits'
p166
S'0x3F'
p167
ssS'upload'
p168
(dp169
S'protocol'
p170
S'arduino'
p171
sS'maximum_size'
p172
S'14336'
p173
sS'speed'
p174
S'19200'
p175
ssS'name'
p176
S'Arduino Diecimila or Duemilanove w/ ATmega168'
p177
sS'build'
p178
(dp179
S'core'
p180
S'arduino'
p181
sS'mcu'
p182
S'atmega168'
p183
sS'f_cpu'
p184
S'16000000L'
p185
sS'variant'
p186
S'standard'
p187
ssaa(lp188
S'nano328'
p189
a(dp190
g70
S'/usr/share/arduino/hardware/arduino'
p191
sS'bootloader'
p192
(dp193
S'extended_fuses'
p194
S'0x05'
p195
sS'high_fuses'
p196
S'0xDA'
p197
sS'low_fuses'
p198
S'0xFF'
p199
sS'lock_bits'
p200
S'0x0F'
p201
sS'file'
p202
S'ATmegaBOOT_168_atmega328.hex'
p203
sS'path'
p204
S'atmega'
p205
sS'unlock_bits'
p206
S'0x3F'
p207
ssS'upload'
p208
(dp209
S'protocol'
p210
S'arduino'
p211
sS'maximum_size'
p212
S'30720'
p213
sS'speed'
p214
S'57600'
p215
ssS'name'
p216
S'Arduino Nano w/ ATmega328'
p217
sS'build'
p218
(dp219
S'core'
p220
S'arduino'
p221
sS'mcu'
p222
S'atmega328p'
p223
sS'f_cpu'
p224
S'16000000L'
p225
sS'variant'
p226
S'eightanaloginputs'
p227
ssaa(lp228
S'nano'
p229
a(dp230
g70
S'/usr/share/arduino/hardware/arduino'
p231
sS'bootloader'
p232
(dp233
S'extended_fuses'
p234
S'0x00'
p235
sS'high_fuses'
p236
S'0xdd'
p237
sS'low_fuses'
p238
S'0xff'
p239
sS'lock_bits'
p240
S'0x0F'
p241
sS'file'
p242
S'ATmegaBOOT_168_diecimila.hex'
p243
sS'path'
p244
S'atmega'
p245
sS'unlock_bits'
p246
S'0x3F'
p247
ssS'upload'
p248
(dp249
S'protocol'
p250
S'arduino'
p251
sS'maximum_size'
p252
S'14336'
p253
sS'speed'
p254
S'19200'
p255
ssS'name'
p256
S'Arduino Nano w/ ATmega168'
p257
sS'build'
p258
(dp259
S'core'
p260
S'arduino'
p261
sS'mcu'
p262
S'atmega168'
p263
sS'f_cpu'
p264
S'16000000L'
p265
sS'variant'
p266
S'eightanaloginputs'
p267
ssaa(lp268
S'mega2560'
p269
a(dp270
g70
S'/usr/share/arduino/hardware/arduino'
p271
sS'bootloader'
p272
(dp273
S'extended_fuses'
p274
S'0xFD'
p275
sS'high_fuses'
p276
S'0xD8'
p277
sS'low_fuses'
p278
S'0xFF'
p279
sS'lock_bits'
p280
S'0x0F'
p281
sS'file'
p282
S'stk500boot_v2_mega2560.hex'
p283
sS'path'
p284
S'stk500v2'
p285
sS'unlock_bits'
p286
S'0x3F'
p287
ssS'upload'
p288
(dp289
S'protocol'
p290
S'wiring'
p291
sS'maximum_size'
p292
S'258048'
p293
sS'speed'
p294
S'115200'
p295
ssS'name'
p296
S'Arduino Mega 2560 or Mega ADK'
p297
sS'build'
p298
(dp299
S'core'
p300
S'arduino'
p301
sS'mcu'
p302
S'atmega2560'
p303
sS'f_cpu'
p304
S'16000000L'
p305
sS'variant'
p306
S'mega'
p307
ssaa(lp308
S'mega'
p309
a(dp310
g70
S'/usr/share/arduino/hardware/arduino'
p311
sS'bootloader'
p312
(dp313
S'extended_fuses'
p314
S'0xF5'
p315
sS'high_fuses'
p316
S'0xDA'
p317
sS'low_fuses'
p318
S'0xFF'
p319
sS'lock_bits'
p320
S'0x0F'
p321
sS'file'
p322
S'ATmegaBOOT_168_atmega1280.hex'
p323
sS'path'
p324
S'atmega'
p325
sS'unlock_bits'
p326
S'0x3F'
p327
ssS'upload'
p328
(dp329
S'protocol'
p330
S'arduino'
p331
sS'maximum_size'
p332
S'126976'
p333
sS'speed'
p334
S'57600'
p335
ssS'name'
p336
S'Arduino Mega (ATmega1280)'
p337
sS'build'
p338
(dp339
S'core'
p340
S'arduino'
p341
sS'mcu'
p342
S'atmega1280'
p343
sS'f_cpu'
p344
S'16000000L'
p345
sS'variant'
p346
S'mega'
p347
ssaa(lp348
S'leonardo'
p349
a(dp350
g70
S'/usr/share/arduino/hardware/arduino'
p351
sS'bootloader'
p352
(dp353
S'extended_fuses'
p354
S'0xcb'
p355
sS'high_fuses'
p356
S'0xd8'
p357
sS'low_fuses'
p358
S'0xff'
p359
sS'lock_bits'
p360
S'0x2F'
p361
sS'file'
p362
S'Caterina-Leonardo.hex'
p363
sS'path'
p364
S'caterina'
p365
sS'unlock_bits'
p366
S'0x3F'
p367
ssS'upload'
p368
(dp369
S'protocol'
p370
S'avr109'
p371
sS'maximum_size'
p372
S'28672'
p373
sS'speed'
p374
S'57600'
p375
sS'disable_flushing'
p376
S'true'
p377
ssS'name'
p378
S'Arduino Leonardo'
p379
sS'build'
p380
(dp381
S'core'
p382
S'arduino'
p383
sS'f_cpu'
p384
S'16000000L'
p385
sS'vid'
p386
S'0x2341'
p387
sS'pid'
p388
S'0x8036'
p389
sS'variant'
p390
S'leonardo'
p391
sS'mcu'
p392
S'atmega32u4'
p393
ssaa(lp394
S'esplora'
p395
a(dp396
g70
S'/usr/share/arduino/hardware/arduino'
p397
sS'bootloader'
p398
(dp399
S'extended_fuses'
p400
S'0xcb'
p401
sS'high_fuses'
p402
S'0xd8'
p403
sS'low_fuses'
p404
S'0xff'
p405
sS'lock_bits'
p406
S'0x2F'
p407
sS'file'
p408
S'Caterina-Esplora.hex'
p409
sS'path'
p410
S'caterina'
p411
sS'unlock_bits'
p412
S'0x3F'
p413
ssS'upload'
p414
(dp415
S'protocol'
p416
S'avr109'
p417
sS'maximum_size'
p418
S'28672'
p419
sS'speed'
p420
S'57600'
p421
sS'disable_flushing'
p422
S'true'
p423
ssS'name'
p424
S'Arduino Esplora'
p425
sS'build'
p426
(dp427
S'core'
p428
S'arduino'
p429
sS'f_cpu'
p430
S'16000000L'
p431
sS'vid'
p432
S'0x2341'
p433
sS'pid'
p434
S'0x803C'
p435
sS'variant'
p436
S'leonardo'
p437
sS'mcu'
p438
S'atmega32u4'
p439
ssaa(lp440
S'micro'
p441
a(dp442
g70
S'/usr/share/arduino/hardware/arduino'
p443
sS'bootloader'
p444
(dp445
S'extended_fuses'
p446
S'0xcb'
p447
sS'high_fuses'
p448
S'0xd8'
p449
sS'low_fuses'
p450
S'0xff'
p451
sS'lock_bits'
p452
S'0x2F'
p453
sS'file'
p454
S'Caterina-Micro.hex'
p455
sS'path'
p456
S'caterina'
p457
sS'unlock_bits'
p458
S'0x3F'
p459
ssS'upload'
p460
(dp461
S'protocol'
p462
S'avr109'
p463
sS'maximum_size'
p464
S'28672'
p465
sS'speed'
p466
S'57600'
p467
sS'disable_flushing'
p468
S'true'
p469
ssS'name'
p470
S'Arduino Micro'
p471
sS'build'
p472
(dp473
S'core'
p474
S'arduino'
p475
sS'f_cpu'
p476
S'16000000L'
p477
sS'vid'
p478
S'0x2341'
p479
sS'pid'
p480
S'0x8037'
p481
sS'variant'
p482
S'micro'
p483
sS'mcu'
p484
S'atmega32u4'
p485
ssaa(lp486
S'mini328'
p487
a(dp488
g70
S'/usr/share/arduino/hardware/arduino'
p489
sS'bootloader'
p490
(dp491
S'extended_fuses'
p492
S'0x05'
p493
sS'high_fuses'
p494
S'0xd8'
p495
sS'low_fuses'
p496
S'0xff'
p497
sS'lock_bits'
p498
S'0x0F'
p499
sS'file'
p500
S'optiboot_atmega328-Mini.hex'
p501
sS'path'
p502
S'optiboot'
p503
sS'unlock_bits'
p504
S'0x3F'
p505
ssS'upload'
p506
(dp507
S'protocol'
p508
S'arduino'
p509
sS'maximum_size'
p510
S'28672'
p511
sS'speed'
p512
S'115200'
p513
ssS'name'
p514
S'Arduino Mini w/ ATmega328'
p515
sS'build'
p516
(dp517
S'core'
p518
S'arduino'
p519
sS'mcu'
p520
S'atmega328p'
p521
sS'f_cpu'
p522
S'16000000L'
p523
sS'variant'
p524
S'eightanaloginputs'
p525
ssaa(lp526
S'mini'
p527
a(dp528
g70
S'/usr/share/arduino/hardware/arduino'
p529
sS'bootloader'
p530
(dp531
S'extended_fuses'
p532
S'0x00'
p533
sS'high_fuses'
p534
S'0xdd'
p535
sS'low_fuses'
p536
S'0xff'
p537
sS'lock_bits'
p538
S'0x0F'
p539
sS'file'
p540
S'ATmegaBOOT_168_ng.hex'
p541
sS'path'
p542
S'atmega'
p543
sS'unlock_bits'
p544
S'0x3F'
p545
ssS'upload'
p546
(dp547
S'protocol'
p548
S'arduino'
p549
sS'maximum_size'
p550
S'14336'
p551
sS'speed'
p552
S'19200'
p553
ssS'name'
p554
S'Arduino Mini w/ ATmega168'
p555
sS'build'
p556
(dp557
S'core'
p558
S'arduino'
p559
sS'mcu'
p560
S'atmega168'
p561
sS'f_cpu'
p562
S'16000000L'
p563
sS'variant'
p564
S'eightanaloginputs'
p565
ssaa(lp566
S'ethernet'
p567
a(dp568
g70
S'/usr/share/arduino/hardware/arduino'
p569
sS'bootloader'
p570
(dp571
S'extended_fuses'
p572
S'0x05'
p573
sS'high_fuses'
p574
S'0xde'
p575
sS'low_fuses'
p576
S'0xff'
p577
sS'lock_bits'
p578
S'0x0F'
p579
sS'file'
p580
S'optiboot_atmega328.hex'
p581
sS'path'
p582
S'optiboot'
p583
sS'unlock_bits'
p584
S'0x3F'
p585
ssS'upload'
p586
(dp587
S'protocol'
p588
S'arduino'
p589
sS'maximum_size'
p590
S'32256'
p591
sS'speed'
p592
S'115200'
p593
ssS'name'
p594
S'Arduino Ethernet'
p595
sS'build'
p596
(dp597
S'variant'
p598
S'standard'
p599
sS'mcu'
p600
S'atmega328p'
p601
sS'f_cpu'
p602
S'16000000L'
p603
sS'core'
p604
S'arduino'
p605
ssaa(lp606
S'fio'
p607
a(dp608
g70
S'/usr/share/arduino/hardware/arduino'
p609
sS'bootloader'
p610
(dp611
S'extended_fuses'
p612
S'0x05'
p613
sS'high_fuses'
p614
S'0xDA'
p615
sS'low_fuses'
p616
S'0xFF'
p617
sS'lock_bits'
p618
S'0x0F'
p619
sS'file'
p620
S'ATmegaBOOT_168_atmega328_pro_8MHz.hex'
p621
sS'path'
p622
S'arduino:atmega'
p623
sS'unlock_bits'
p624
S'0x3F'
p625
ssS'upload'
p626
(dp627
S'protocol'
p628
S'arduino'
p629
sS'maximum_size'
p630
S'30720'
p631
sS'speed'
p632
S'57600'
p633
ssS'name'
p634
S'Arduino Fio'
p635
sS'build'
p636
(dp637
S'core'
p638
S'arduino'
p639
sS'mcu'
p640
S'atmega328p'
p641
sS'f_cpu'
p642
S'8000000L'
p643
sS'variant'
p644
S'eightanaloginputs'
p645
ssaa(lp646
S'bt328'
p647
a(dp648
g70
S'/usr/share/arduino/hardware/arduino'
p649
sS'bootloader'
p650
(dp651
S'extended_fuses'
p652
S'0x05'
p653
sS'high_fuses'
p654
S'0xd8'
p655
sS'low_fuses'
p656
S'0xff'
p657
sS'lock_bits'
p658
S'0x0F'
p659
sS'file'
p660
S'ATmegaBOOT_168_atmega328_bt.hex'
p661
sS'path'
p662
S'bt'
p663
sS'unlock_bits'
p664
S'0x3F'
p665
ssS'upload'
p666
(dp667
S'protocol'
p668
S'arduino'
p669
sS'maximum_size'
p670
S'28672'
p671
sS'speed'
p672
S'19200'
p673
sS'disable_flushing'
p674
S'true'
p675
ssS'name'
p676
S'Arduino BT w/ ATmega328'
p677
sS'build'
p678
(dp679
S'core'
p680
S'arduino'
p681
sS'mcu'
p682
S'atmega328p'
p683
sS'f_cpu'
p684
S'16000000L'
p685
sS'variant'
p686
S'eightanaloginputs'
p687
ssaa(lp688
S'bt'
p689
a(dp690
g70
S'/usr/share/arduino/hardware/arduino'
p691
sS'bootloader'
p692
(dp693
S'extended_fuses'
p694
S'0x00'
p695
sS'high_fuses'
p696
S'0xdd'
p697
sS'low_fuses'
p698
S'0xff'
p699
sS'lock_bits'
p700
S'0x0F'
p701
sS'file'
p702
S'ATmegaBOOT_168.hex'
p703
sS'path'
p704
S'bt'
p705
sS'unlock_bits'
p706
S'0x3F'
p707
ssS'upload'
p708
(dp709
S'protocol'
p710
S'arduino'
p711
sS'maximum_size'
p712
S'14336'
p713
sS'speed'
p714
S'19200'
p715
sS'disable_flushing'
p716
S'true'
p717
ssS'name'
p718
S'Arduino BT w/ ATmega168'
p719
sS'build'
p720
(dp721
S'core'
p722
S'arduino'
p723
sS'mcu'
p724
S'atmega168'
p725
sS'f_cpu'
p726
S'16000000L'
p727
sS'variant'
p728
S'eightanaloginputs'
p729
ssaa(lp730
S'LilyPadUSB'
p731
a(dp732
g70
S'/usr/share/arduino/hardware/arduino'
p733
sS'bootloader'
p734
(dp735
S'extended_fuses'
p736
S'0xce'
p737
sS'high_fuses'
p738
S'0xd8'
p739
sS'low_fuses'
p740
S'0xff'
p741
sS'lock_bits'
p742
S'0x2F'
p743
sS'file'
p744
S'Caterina-LilyPadUSB.hex'
p745
sS'path'
p746
S'caterina-LilyPadUSB'
p747
sS'unlock_bits'
p748
S'0x3F'
p749
ssS'upload'
p750
(dp751
S'protocol'
p752
S'avr109'
p753
sS'maximum_size'
p754
S'28672'
p755
sS'speed'
p756
S'57600'
p757
sS'disable_flushing'
p758
S'true'
p759
ssS'name'
p760
S'LilyPad Arduino USB'
p761
sS'build'
p762
(dp763
S'core'
p764
S'arduino'
p765
sS'f_cpu'
p766
S'8000000L'
p767
sS'vid'
p768
S'0x1B4F'
p769
sS'pid'
p770
S'0x9208'
p771
sS'variant'
p772
S'leonardo'
p773
sS'mcu'
p774
S'atmega32u4'
p775
ssaa(lp776
S'lilypad328'
p777
a(dp778
g70
S'/usr/share/arduino/hardware/arduino'
p779
sS'bootloader'
p780
(dp781
S'extended_fuses'
p782
S'0x05'
p783
sS'high_fuses'
p784
S'0xDA'
p785
sS'low_fuses'
p786
S'0xFF'
p787
sS'lock_bits'
p788
S'0x0F'
p789
sS'file'
p790
S'ATmegaBOOT_168_atmega328_pro_8MHz.hex'
p791
sS'path'
p792
S'atmega'
p793
sS'unlock_bits'
p794
S'0x3F'
p795
ssS'upload'
p796
(dp797
S'protocol'
p798
S'arduino'
p799
sS'maximum_size'
p800
S'30720'
p801
sS'speed'
p802
S'57600'
p803
ssS'name'
p804
S'LilyPad Arduino w/ ATmega328'
p805
sS'build'
p806
(dp807
S'core'
p808
S'arduino'
p809
sS'mcu'
p810
S'atmega328p'
p811
sS'f_cpu'
p812
S'8000000L'
p813
sS'variant'
p814
S'standard'
p815
ssaa(lp816
S'lilypad'
p817
a(dp818
g70
S'/usr/share/arduino/hardware/arduino'
p819
sS'bootloader'
p820
(dp821
S'extended_fuses'
p822
S'0x00'
p823
sS'high_fuses'
p824
S'0xdd'
p825
sS'low_fuses'
p826
S'0xe2'
p827
sS'lock_bits'
p828
S'0x0F'
p829
sS'file'
p830
S'LilyPadBOOT_168.hex'
p831
sS'path'
p832
S'lilypad'
p833
sS'unlock_bits'
p834
S'0x3F'
p835
ssS'upload'
p836
(dp837
S'protocol'
p838
S'arduino'
p839
sS'maximum_size'
p840
S'14336'
p841
sS'speed'
p842
S'19200'
p843
ssS'name'
p844
S'LilyPad Arduino w/ ATmega168'
p845
sS'build'
p846
(dp847
S'core'
p848
S'arduino'
p849
sS'mcu'
p850
S'atmega168'
p851
sS'f_cpu'
p852
S'8000000L'
p853
sS'variant'
p854
S'standard'
p855
ssaa(lp856
S'pro5v328'
p857
a(dp858
g70
S'/usr/share/arduino/hardware/arduino'
p859
sS'bootloader'
p860
(dp861
S'extended_fuses'
p862
S'0x05'
p863
sS'high_fuses'
p864
S'0xDA'
p865
sS'low_fuses'
p866
S'0xFF'
p867
sS'lock_bits'
p868
S'0x0F'
p869
sS'file'
p870
S'ATmegaBOOT_168_atmega328.hex'
p871
sS'path'
p872
S'atmega'
p873
sS'unlock_bits'
p874
S'0x3F'
p875
ssS'upload'
p876
(dp877
S'protocol'
p878
S'arduino'
p879
sS'maximum_size'
p880
S'30720'
p881
sS'speed'
p882
S'57600'
p883
ssS'name'
p884
S'Arduino Pro or Pro Mini (5V, 16 MHz) w/ ATmega328'
p885
sS'build'
p886
(dp887
S'core'
p888
S'arduino'
p889
sS'mcu'
p890
S'atmega328p'
p891
sS'f_cpu'
p892
S'16000000L'
p893
sS'variant'
p894
S'standard'
p895
ssaa(lp896
S'pro5v'
p897
a(dp898
g70
S'/usr/share/arduino/hardware/arduino'
p899
sS'bootloader'
p900
(dp901
S'extended_fuses'
p902
S'0x00'
p903
sS'high_fuses'
p904
S'0xdd'
p905
sS'low_fuses'
p906
S'0xff'
p907
sS'lock_bits'
p908
S'0x0F'
p909
sS'file'
p910
S'ATmegaBOOT_168_diecimila.hex'
p911
sS'path'
p912
S'atmega'
p913
sS'unlock_bits'
p914
S'0x3F'
p915
ssS'upload'
p916
(dp917
S'protocol'
p918
S'arduino'
p919
sS'maximum_size'
p920
S'14336'
p921
sS'speed'
p922
S'19200'
p923
ssS'name'
p924
S'Arduino Pro or Pro Mini (5V, 16 MHz) w/ ATmega168'
p925
sS'build'
p926
(dp927
S'core'
p928
S'arduino'
p929
sS'mcu'
p930
S'atmega168'
p931
sS'f_cpu'
p932
S'16000000L'
p933
sS'variant'
p934
S'standard'
p935
ssaa(lp936
S'pro328'
p937
a(dp938
g70
S'/usr/share/arduino/hardware/arduino'
p939
sS'bootloader'
p940
(dp941
S'extended_fuses'
p942
S'0x05'
p943
sS'high_fuses'
p944
S'0xDA'
p945
sS'low_fuses'
p946
S'0xFF'
p947
sS'lock_bits'
p948
S'0x0F'
p949
sS'file'
p950
S'ATmegaBOOT_168_atmega328_pro_8MHz.hex'
p951
sS'path'
p952
S'atmega'
p953
sS'unlock_bits'
p954
S'0x3F'
p955
ssS'upload'
p956
(dp957
S'protocol'
p958
S'arduino'
p959
sS'maximum_size'
p960
S'30720'
p961
sS'speed'
p962
S'57600'
p963
ssS'name'
p964
S'Arduino Pro or Pro Mini (3.3V, 8 MHz) w/ ATmega328'
p965
sS'build'
p966
(dp967
S'core'
p968
S'arduino'
p969
sS'mcu'
p970
S'atmega328p'
p971
sS'f_cpu'
p972
S'8000000L'
p973
sS'variant'
p974
S'standard'
p975
ssaa(lp976
S'pro'
p977
a(dp978
g70
S'/usr/share/arduino/hardware/arduino'
p979
sS'bootloader'
p980
(dp981
S'extended_fuses'
p982
S'0x00'
p983
sS'high_fuses'
p984
S'0xdd'
p985
sS'low_fuses'
p986
S'0xc6'
p987
sS'lock_bits'
p988
S'0x0F'
p989
sS'file'
p990
S'ATmegaBOOT_168_pro_8MHz.hex'
p991
sS'path'
p992
S'atmega'
p993
sS'unlock_bits'
p994
S'0x3F'
p995
ssS'upload'
p996
(dp997
S'protocol'
p998
S'arduino'
p999
sS'maximum_size'
p1000
S'14336'
p1001
sS'speed'
p1002
S'19200'
p1003
ssS'name'
p1004
S'Arduino Pro or Pro Mini (3.3V, 8 MHz) w/ ATmega168'
p1005
sS'build'
p1006
(dp1007
S'core'
p1008
S'arduino'
p1009
sS'mcu'
p1010
S'atmega168'
p1011
sS'f_cpu'
p1012
S'8000000L'
p1013
sS'variant'
p1014
S'standard'
p1015
ssaa(lp1016
S'atmega168'
p1017
a(dp1018
g70
S'/usr/share/arduino/hardware/arduino'
p1019
sS'bootloader'
p1020
(dp1021
S'extended_fuses'
p1022
S'0x00'
p1023
sS'high_fuses'
p1024
S'0xdd'
p1025
sS'low_fuses'
p1026
S'0xff'
p1027
sS'lock_bits'
p1028
S'0x0F'
p1029
sS'file'
p1030
S'ATmegaBOOT_168_ng.hex'
p1031
sS'path'
p1032
S'atmega'
p1033
sS'unlock_bits'
p1034
S'0x3F'
p1035
ssS'upload'
p1036
(dp1037
S'protocol'
p1038
S'arduino'
p1039
sS'maximum_size'
p1040
S'14336'
p1041
sS'speed'
p1042
S'19200'
p1043
ssS'name'
p1044
S'Arduino NG or older w/ ATmega168'
p1045
sS'build'
p1046
(dp1047
S'core'
p1048
S'arduino'
p1049
sS'mcu'
p1050
S'atmega168'
p1051
sS'f_cpu'
p1052
S'16000000L'
p1053
sS'variant'
p1054
S'standard'
p1055
ssaa(lp1056
S'atmega8'
p1057
a(dp1058
g70
S'/usr/share/arduino/hardware/arduino'
p1059
sS'bootloader'
p1060
(dp1061
S'high_fuses'
p1062
S'0xca'
p1063
sS'low_fuses'
p1064
S'0xdf'
p1065
sS'lock_bits'
p1066
S'0x0F'
p1067
sS'file'
p1068
S'ATmegaBOOT-prod-firmware-2009-11-07.hex'
p1069
sS'path'
p1070
S'atmega8'
p1071
sS'unlock_bits'
p1072
S'0x3F'
p1073
ssS'upload'
p1074
(dp1075
S'protocol'
p1076
S'arduino'
p1077
sS'maximum_size'
p1078
S'7168'
p1079
sS'speed'
p1080
S'19200'
p1081
ssS'name'
p1082
S'Arduino NG or older w/ ATmega8'
p1083
sS'build'
p1084
(dp1085
S'core'
p1086
S'arduino'
p1087
sS'mcu'
p1088
S'atmega8'
p1089
sS'f_cpu'
p1090
S'16000000L'
p1091
sS'variant'
p1092
S'standard'
p1093
ssaa(lp1094
S'robotControl'
p1095
a(dp1096
g70
S'/usr/share/arduino/hardware/arduino'
p1097
sS'bootloader'
p1098
(dp1099
S'extended_fuses'
p1100
S'0xcb'
p1101
sS'high_fuses'
p1102
S'0xd8'
p1103
sS'low_fuses'
p1104
S'0xff'
p1105
sS'lock_bits'
p1106
S'0x2F'
p1107
sS'file'
p1108
S'Caterina-Robot-Control.hex'
p1109
sS'path'
p1110
S'caterina-Arduino_Robot'
p1111
sS'unlock_bits'
p1112
S'0x3F'
p1113
ssS'upload'
p1114
(dp1115
S'protocol'
p1116
S'avr109'
p1117
sS'maximum_size'
p1118
S'28672'
p1119
sS'speed'
p1120
S'57600'
p1121
sS'disable_flushing'
p1122
S'true'
p1123
ssS'name'
p1124
S'Arduino Robot Control'
p1125
sS'build'
p1126
(dp1127
S'core'
p1128
S'robot'
p1129
sS'f_cpu'
p1130
S'16000000L'
p1131
sS'vid'
p1132
S'0x2341'
p1133
sS'pid'
p1134
S'0x8038'
p1135
sS'variant'
p1136
S'robot_control'
p1137
sS'mcu'
p1138
S'atmega32u4'
p1139
ssaa(lp1140
S'robotMotor'
p1141
a(dp1142
g70
S'/usr/share/arduino/hardware/arduino'
p1143
sS'bootloader'
p1144
(dp1145
S'extended_fuses'
p1146
S'0xcb'
p1147
sS'high_fuses'
p1148
S'0xd8'
p1149
sS'low_fuses'
p1150
S'0xff'
p1151
sS'lock_bits'
p1152
S'0x2F'
p1153
sS'file'
p1154
S'Caterina-Robot-Motor.hex'
p1155
sS'path'
p1156
S'caterina-Arduino_Robot'
p1157
sS'unlock_bits'
p1158
S'0x3F'
p1159
ssS'upload'
p1160
(dp1161
S'protocol'
p1162
S'avr109'
p1163
sS'maximum_size'
p1164
S'28672'
p1165
sS'speed'
p1166
S'57600'
p1167
sS'disable_flushing'
p1168
S'true'
p1169
ssS'name'
p1170
S'Arduino Robot Motor'
p1171
sS'build'
p1172
(dp1173
S'core'
p1174
S'robot'
p1175
sS'f_cpu'
p1176
S'16000000L'
p1177
sS'vid'
p1178
S'0x2341'
p1179
sS'pid'
p1180
S'0x8039'
p1181
sS'variant'
p1182
S'robot_motor'
p1183
sS'mcu'
p1184
S'atmega32u4'
p1185
ssaatp1186
Rp1187
(dp1188
S'default'
p1189
S'uno'
p1190
sbtp1191
a(S'used_libs'
p1192
(lp1193
S'lib/MCP23S17'
p1194
aS'/usr/share/arduino/libraries/EEPROM'
p1195
aS'/usr/share/arduino/libraries/SPI'
p1196
aS'/usr/share/arduino/hardware/arduino/cores/arduino'
p1197
atp1198
a(S'make'
p1199
S'/usr/share/arduino/hardware/tools/avr/bin/make'
p1200
tp1201
a(S'build_dir'
p1202
S'.build/atmega328'
p1203
tp1204
a(S'cc'
p1205
S'/usr/share/arduino/hardware/tools/avr/bin/avr-gcc'
p1206
tp1207
a(S'cflags'
p1208
g2
(g3
g4
(lp1209
tp1210
Rp1211
tp1212
a(S'cxxflags'
p1213
g2
(g3
g4
(lp1214
S'-fno-exceptions'
p1215
atp1216
Rp1217
tp1218
a(S'arduino_variants_dir'
p1219
S'/usr/share/arduino/hardware/arduino/variants'
p1220
tp1221
a(S'serial'
p1222
S'/usr/bin/picocom'
p1223
tp1224
a(S'stty'
p1225
S'/bin/stty'
p1226
tp1227
a(S'version.txt'
p1228
S'/usr/share/arduino/lib/version.txt'
p1229
tp1230
a(S'arduino_core_dir'
p1231
g1197
tp1232
a(S'boards.txt'
p1233
(lp1234
S'/usr/share/arduino/hardware/arduino/boards.txt'
p1235
atp1236
a(S'avrdude.conf'
p1237
S'/usr/share/arduino/hardware/tools/avrdude.conf'
p1238
tp1239
a(S'deps'
p1240
g2
(g3
g4
(lp1241
S'.build/atmega328/src/dependencies.d'
p1242
aS'.build/atmega328/MCP23S17/dependencies.d'
p1243
aS'.build/atmega328/arduino/dependencies.d'
p1244
aS'.build/atmega328/EEPROM/dependencies.d'
p1245
aS'.build/atmega328/SPI/dependencies.d'
p1246
atp1247
Rp1248
tp1249
a.