(lp0
(S'cppflags'
p1
ccopy_reg
_reconstructor
p2
(cino.utils
SpaceList
p3
c__builtin__
list
p4
(lp5
S'-mmcu=atmega328p'
p6
aS'-DF_CPU=16000000L'
p7
aS'-DARDUINO=105'
p8
aS'-I/usr/share/arduino/hardware/arduino/cores/arduino'
p9
aS'-ffunction-sections'
p10
aS'-fdata-sections'
p11
aS'-g'
p12
aS'-Os'
p13
aS'-w'
p14
aS'-I/usr/share/arduino/hardware/arduino/variants/standard'
p15
aS'-Ilib/MCP23S17'
p16
aS'-I/usr/share/arduino/libraries/EEPROM'
p17
aS'-I/usr/share/arduino/libraries/SPI'
p18
aS'-I/usr/share/arduino/hardware/arduino/cores/arduino'
p19
aS'-I/usr/share/arduino/hardware/arduino/cores/arduino/avr-libc'
p20
atp21
Rp22
tp23
a(S'cxx'
p24
S'/usr/share/arduino/hardware/tools/avr/bin/avr-g++'
p25
tp26
a(S'build_dir'
p27
S'.build/atmega328'
p28
tp29
a(S'avrdude'
p30
S'/usr/share/arduino/hardware/tools/avrdude'
p31
tp32
a(S'ar'
p33
S'/usr/share/arduino/hardware/tools/avr/bin/avr-ar'
p34
tp35
a(S'names'
p36
(dp37
S'cpp'
p38
S'%s.cpp'
p39
sS'obj'
p40
S'%s.o'
p41
sS'lib'
p42
S'lib%s.a'
p43
sS'deps'
p44
S'%s.d'
p45
stp46
a(S'ldflags'
p47
g2
(g3
g4
(lp48
g6
aS'-Wl,-Os'
p49
aS'-Wl,--gc-sections'
p50
atp51
Rp52
tp53
a(S'arduino_lib_version'
p54
g2
(cino.environment
Version
p55
c__builtin__
tuple
p56
(I1
I0
I5
tp57
tp58
Rp59
tp60
a(S'objcopy'
p61
S'/usr/share/arduino/hardware/tools/avr/bin/avr-objcopy'
p62
tp63
a(S'board_models'
p64
cino.environment
BoardModels
p65
((lp66
(lp67
S'uno'
p68
a(dp69
S'bootloader'
p70
(dp71
S'extended_fuses'
p72
S'0x05'
p73
sS'high_fuses'
p74
S'0xde'
p75
sS'low_fuses'
p76
S'0xff'
p77
sS'lock_bits'
p78
S'0x0F'
p79
sS'file'
p80
S'optiboot_atmega328.hex'
p81
sS'path'
p82
S'optiboot'
p83
sS'unlock_bits'
p84
S'0x3F'
p85
ssS'upload'
p86
(dp87
S'speed'
p88
S'115200'
p89
sS'maximum_size'
p90
S'32256'
p91
sS'protocol'
p92
S'arduino'
p93
ssS'build'
p94
(dp95
S'core'
p96
S'arduino'
p97
sS'mcu'
p98
S'atmega328p'
p99
sS'f_cpu'
p100
S'16000000L'
p101
sS'variant'
p102
S'standard'
p103
ssS'name'
p104
S'Arduino Uno'
p105
sS'_coredir'
p106
S'/usr/share/arduino/hardware/arduino'
p107
saa(lp108
S'atmega328'
p109
a(dp110
S'bootloader'
p111
(dp112
S'extended_fuses'
p113
S'0x05'
p114
sS'high_fuses'
p115
S'0xDA'
p116
sS'low_fuses'
p117
S'0xFF'
p118
sS'lock_bits'
p119
S'0x0F'
p120
sS'file'
p121
S'ATmegaBOOT_168_atmega328.hex'
p122
sS'path'
p123
S'atmega'
p124
sS'unlock_bits'
p125
S'0x3F'
p126
ssS'upload'
p127
(dp128
S'speed'
p129
S'57600'
p130
sS'maximum_size'
p131
S'30720'
p132
sS'protocol'
p133
S'arduino'
p134
ssS'build'
p135
(dp136
S'core'
p137
S'arduino'
p138
sS'mcu'
p139
S'atmega328p'
p140
sS'f_cpu'
p141
S'16000000L'
p142
sS'variant'
p143
S'standard'
p144
ssS'name'
p145
S'Arduino Duemilanove w/ ATmega328'
p146
sg106
S'/usr/share/arduino/hardware/arduino'
p147
saa(lp148
S'diecimila'
p149
a(dp150
S'bootloader'
p151
(dp152
S'extended_fuses'
p153
S'0x00'
p154
sS'high_fuses'
p155
S'0xdd'
p156
sS'low_fuses'
p157
S'0xff'
p158
sS'lock_bits'
p159
S'0x0F'
p160
sS'file'
p161
S'ATmegaBOOT_168_diecimila.hex'
p162
sS'path'
p163
S'atmega'
p164
sS'unlock_bits'
p165
S'0x3F'
p166
ssS'upload'
p167
(dp168
S'speed'
p169
S'19200'
p170
sS'maximum_size'
p171
S'14336'
p172
sS'protocol'
p173
S'arduino'
p174
ssS'build'
p175
(dp176
S'core'
p177
S'arduino'
p178
sS'mcu'
p179
S'atmega168'
p180
sS'f_cpu'
p181
S'16000000L'
p182
sS'variant'
p183
S'standard'
p184
ssS'name'
p185
S'Arduino Diecimila or Duemilanove w/ ATmega168'
p186
sg106
S'/usr/share/arduino/hardware/arduino'
p187
saa(lp188
S'nano328'
p189
a(dp190
S'bootloader'
p191
(dp192
S'extended_fuses'
p193
S'0x05'
p194
sS'high_fuses'
p195
S'0xDA'
p196
sS'low_fuses'
p197
S'0xFF'
p198
sS'lock_bits'
p199
S'0x0F'
p200
sS'file'
p201
S'ATmegaBOOT_168_atmega328.hex'
p202
sS'path'
p203
S'atmega'
p204
sS'unlock_bits'
p205
S'0x3F'
p206
ssS'upload'
p207
(dp208
S'speed'
p209
S'57600'
p210
sS'maximum_size'
p211
S'30720'
p212
sS'protocol'
p213
S'arduino'
p214
ssS'build'
p215
(dp216
S'core'
p217
S'arduino'
p218
sS'mcu'
p219
S'atmega328p'
p220
sS'f_cpu'
p221
S'16000000L'
p222
sS'variant'
p223
S'eightanaloginputs'
p224
ssS'name'
p225
S'Arduino Nano w/ ATmega328'
p226
sg106
S'/usr/share/arduino/hardware/arduino'
p227
saa(lp228
S'nano'
p229
a(dp230
S'bootloader'
p231
(dp232
S'extended_fuses'
p233
S'0x00'
p234
sS'high_fuses'
p235
S'0xdd'
p236
sS'low_fuses'
p237
S'0xff'
p238
sS'lock_bits'
p239
S'0x0F'
p240
sS'file'
p241
S'ATmegaBOOT_168_diecimila.hex'
p242
sS'path'
p243
S'atmega'
p244
sS'unlock_bits'
p245
S'0x3F'
p246
ssS'upload'
p247
(dp248
S'speed'
p249
S'19200'
p250
sS'maximum_size'
p251
S'14336'
p252
sS'protocol'
p253
S'arduino'
p254
ssS'build'
p255
(dp256
S'core'
p257
S'arduino'
p258
sS'mcu'
p259
S'atmega168'
p260
sS'f_cpu'
p261
S'16000000L'
p262
sS'variant'
p263
S'eightanaloginputs'
p264
ssS'name'
p265
S'Arduino Nano w/ ATmega168'
p266
sg106
S'/usr/share/arduino/hardware/arduino'
p267
saa(lp268
S'mega2560'
p269
a(dp270
S'bootloader'
p271
(dp272
S'extended_fuses'
p273
S'0xFD'
p274
sS'high_fuses'
p275
S'0xD8'
p276
sS'low_fuses'
p277
S'0xFF'
p278
sS'lock_bits'
p279
S'0x0F'
p280
sS'file'
p281
S'stk500boot_v2_mega2560.hex'
p282
sS'path'
p283
S'stk500v2'
p284
sS'unlock_bits'
p285
S'0x3F'
p286
ssS'upload'
p287
(dp288
S'speed'
p289
S'115200'
p290
sS'maximum_size'
p291
S'258048'
p292
sS'protocol'
p293
S'wiring'
p294
ssS'build'
p295
(dp296
S'core'
p297
S'arduino'
p298
sS'mcu'
p299
S'atmega2560'
p300
sS'f_cpu'
p301
S'16000000L'
p302
sS'variant'
p303
S'mega'
p304
ssS'name'
p305
S'Arduino Mega 2560 or Mega ADK'
p306
sg106
S'/usr/share/arduino/hardware/arduino'
p307
saa(lp308
S'mega'
p309
a(dp310
S'bootloader'
p311
(dp312
S'extended_fuses'
p313
S'0xF5'
p314
sS'high_fuses'
p315
S'0xDA'
p316
sS'low_fuses'
p317
S'0xFF'
p318
sS'lock_bits'
p319
S'0x0F'
p320
sS'file'
p321
S'ATmegaBOOT_168_atmega1280.hex'
p322
sS'path'
p323
S'atmega'
p324
sS'unlock_bits'
p325
S'0x3F'
p326
ssS'upload'
p327
(dp328
S'speed'
p329
S'57600'
p330
sS'maximum_size'
p331
S'126976'
p332
sS'protocol'
p333
S'arduino'
p334
ssS'build'
p335
(dp336
S'core'
p337
S'arduino'
p338
sS'mcu'
p339
S'atmega1280'
p340
sS'f_cpu'
p341
S'16000000L'
p342
sS'variant'
p343
S'mega'
p344
ssS'name'
p345
S'Arduino Mega (ATmega1280)'
p346
sg106
S'/usr/share/arduino/hardware/arduino'
p347
saa(lp348
S'leonardo'
p349
a(dp350
S'bootloader'
p351
(dp352
S'extended_fuses'
p353
S'0xcb'
p354
sS'high_fuses'
p355
S'0xd8'
p356
sS'low_fuses'
p357
S'0xff'
p358
sS'lock_bits'
p359
S'0x2F'
p360
sS'file'
p361
S'Caterina-Leonardo.hex'
p362
sS'path'
p363
S'caterina'
p364
sS'unlock_bits'
p365
S'0x3F'
p366
ssS'upload'
p367
(dp368
S'speed'
p369
S'57600'
p370
sS'maximum_size'
p371
S'28672'
p372
sS'protocol'
p373
S'avr109'
p374
sS'disable_flushing'
p375
S'true'
p376
ssS'build'
p377
(dp378
S'core'
p379
S'arduino'
p380
sS'f_cpu'
p381
S'16000000L'
p382
sS'vid'
p383
S'0x2341'
p384
sS'pid'
p385
S'0x8036'
p386
sS'variant'
p387
S'leonardo'
p388
sS'mcu'
p389
S'atmega32u4'
p390
ssS'name'
p391
S'Arduino Leonardo'
p392
sg106
S'/usr/share/arduino/hardware/arduino'
p393
saa(lp394
S'esplora'
p395
a(dp396
S'bootloader'
p397
(dp398
S'extended_fuses'
p399
S'0xcb'
p400
sS'high_fuses'
p401
S'0xd8'
p402
sS'low_fuses'
p403
S'0xff'
p404
sS'lock_bits'
p405
S'0x2F'
p406
sS'file'
p407
S'Caterina-Esplora.hex'
p408
sS'path'
p409
S'caterina'
p410
sS'unlock_bits'
p411
S'0x3F'
p412
ssS'upload'
p413
(dp414
S'speed'
p415
S'57600'
p416
sS'maximum_size'
p417
S'28672'
p418
sS'protocol'
p419
S'avr109'
p420
sS'disable_flushing'
p421
S'true'
p422
ssS'build'
p423
(dp424
S'core'
p425
S'arduino'
p426
sS'f_cpu'
p427
S'16000000L'
p428
sS'vid'
p429
S'0x2341'
p430
sS'pid'
p431
S'0x803C'
p432
sS'variant'
p433
S'leonardo'
p434
sS'mcu'
p435
S'atmega32u4'
p436
ssS'name'
p437
S'Arduino Esplora'
p438
sg106
S'/usr/share/arduino/hardware/arduino'
p439
saa(lp440
S'micro'
p441
a(dp442
S'bootloader'
p443
(dp444
S'extended_fuses'
p445
S'0xcb'
p446
sS'high_fuses'
p447
S'0xd8'
p448
sS'low_fuses'
p449
S'0xff'
p450
sS'lock_bits'
p451
S'0x2F'
p452
sS'file'
p453
S'Caterina-Micro.hex'
p454
sS'path'
p455
S'caterina'
p456
sS'unlock_bits'
p457
S'0x3F'
p458
ssS'upload'
p459
(dp460
S'speed'
p461
S'57600'
p462
sS'maximum_size'
p463
S'28672'
p464
sS'protocol'
p465
S'avr109'
p466
sS'disable_flushing'
p467
S'true'
p468
ssS'build'
p469
(dp470
S'core'
p471
S'arduino'
p472
sS'f_cpu'
p473
S'16000000L'
p474
sS'vid'
p475
S'0x2341'
p476
sS'pid'
p477
S'0x8037'
p478
sS'variant'
p479
S'micro'
p480
sS'mcu'
p481
S'atmega32u4'
p482
ssS'name'
p483
S'Arduino Micro'
p484
sg106
S'/usr/share/arduino/hardware/arduino'
p485
saa(lp486
S'mini328'
p487
a(dp488
S'bootloader'
p489
(dp490
S'extended_fuses'
p491
S'0x05'
p492
sS'high_fuses'
p493
S'0xd8'
p494
sS'low_fuses'
p495
S'0xff'
p496
sS'lock_bits'
p497
S'0x0F'
p498
sS'file'
p499
S'optiboot_atmega328-Mini.hex'
p500
sS'path'
p501
S'optiboot'
p502
sS'unlock_bits'
p503
S'0x3F'
p504
ssS'upload'
p505
(dp506
S'speed'
p507
S'115200'
p508
sS'maximum_size'
p509
S'28672'
p510
sS'protocol'
p511
S'arduino'
p512
ssS'build'
p513
(dp514
S'core'
p515
S'arduino'
p516
sS'mcu'
p517
S'atmega328p'
p518
sS'f_cpu'
p519
S'16000000L'
p520
sS'variant'
p521
S'eightanaloginputs'
p522
ssS'name'
p523
S'Arduino Mini w/ ATmega328'
p524
sg106
S'/usr/share/arduino/hardware/arduino'
p525
saa(lp526
S'mini'
p527
a(dp528
S'bootloader'
p529
(dp530
S'extended_fuses'
p531
S'0x00'
p532
sS'high_fuses'
p533
S'0xdd'
p534
sS'low_fuses'
p535
S'0xff'
p536
sS'lock_bits'
p537
S'0x0F'
p538
sS'file'
p539
S'ATmegaBOOT_168_ng.hex'
p540
sS'path'
p541
S'atmega'
p542
sS'unlock_bits'
p543
S'0x3F'
p544
ssS'upload'
p545
(dp546
S'speed'
p547
S'19200'
p548
sS'maximum_size'
p549
S'14336'
p550
sS'protocol'
p551
S'arduino'
p552
ssS'build'
p553
(dp554
S'core'
p555
S'arduino'
p556
sS'mcu'
p557
S'atmega168'
p558
sS'f_cpu'
p559
S'16000000L'
p560
sS'variant'
p561
S'eightanaloginputs'
p562
ssS'name'
p563
S'Arduino Mini w/ ATmega168'
p564
sg106
S'/usr/share/arduino/hardware/arduino'
p565
saa(lp566
S'ethernet'
p567
a(dp568
S'bootloader'
p569
(dp570
S'extended_fuses'
p571
S'0x05'
p572
sS'high_fuses'
p573
S'0xde'
p574
sS'low_fuses'
p575
S'0xff'
p576
sS'lock_bits'
p577
S'0x0F'
p578
sS'file'
p579
S'optiboot_atmega328.hex'
p580
sS'path'
p581
S'optiboot'
p582
sS'unlock_bits'
p583
S'0x3F'
p584
ssS'upload'
p585
(dp586
S'speed'
p587
S'115200'
p588
sS'maximum_size'
p589
S'32256'
p590
sS'protocol'
p591
S'arduino'
p592
ssS'build'
p593
(dp594
S'f_cpu'
p595
S'16000000L'
p596
sS'mcu'
p597
S'atmega328p'
p598
sS'variant'
p599
S'standard'
p600
sS'core'
p601
S'arduino'
p602
ssS'name'
p603
S'Arduino Ethernet'
p604
sg106
S'/usr/share/arduino/hardware/arduino'
p605
saa(lp606
S'fio'
p607
a(dp608
S'bootloader'
p609
(dp610
S'extended_fuses'
p611
S'0x05'
p612
sS'high_fuses'
p613
S'0xDA'
p614
sS'low_fuses'
p615
S'0xFF'
p616
sS'lock_bits'
p617
S'0x0F'
p618
sS'file'
p619
S'ATmegaBOOT_168_atmega328_pro_8MHz.hex'
p620
sS'path'
p621
S'arduino:atmega'
p622
sS'unlock_bits'
p623
S'0x3F'
p624
ssS'upload'
p625
(dp626
S'speed'
p627
S'57600'
p628
sS'maximum_size'
p629
S'30720'
p630
sS'protocol'
p631
S'arduino'
p632
ssS'build'
p633
(dp634
S'core'
p635
S'arduino'
p636
sS'mcu'
p637
S'atmega328p'
p638
sS'f_cpu'
p639
S'8000000L'
p640
sS'variant'
p641
S'eightanaloginputs'
p642
ssS'name'
p643
S'Arduino Fio'
p644
sg106
S'/usr/share/arduino/hardware/arduino'
p645
saa(lp646
S'bt328'
p647
a(dp648
S'bootloader'
p649
(dp650
S'extended_fuses'
p651
S'0x05'
p652
sS'high_fuses'
p653
S'0xd8'
p654
sS'low_fuses'
p655
S'0xff'
p656
sS'lock_bits'
p657
S'0x0F'
p658
sS'file'
p659
S'ATmegaBOOT_168_atmega328_bt.hex'
p660
sS'path'
p661
S'bt'
p662
sS'unlock_bits'
p663
S'0x3F'
p664
ssS'upload'
p665
(dp666
S'speed'
p667
S'19200'
p668
sS'maximum_size'
p669
S'28672'
p670
sS'protocol'
p671
S'arduino'
p672
sS'disable_flushing'
p673
S'true'
p674
ssS'build'
p675
(dp676
S'core'
p677
S'arduino'
p678
sS'mcu'
p679
S'atmega328p'
p680
sS'f_cpu'
p681
S'16000000L'
p682
sS'variant'
p683
S'eightanaloginputs'
p684
ssS'name'
p685
S'Arduino BT w/ ATmega328'
p686
sg106
S'/usr/share/arduino/hardware/arduino'
p687
saa(lp688
S'bt'
p689
a(dp690
S'bootloader'
p691
(dp692
S'extended_fuses'
p693
S'0x00'
p694
sS'high_fuses'
p695
S'0xdd'
p696
sS'low_fuses'
p697
S'0xff'
p698
sS'lock_bits'
p699
S'0x0F'
p700
sS'file'
p701
S'ATmegaBOOT_168.hex'
p702
sS'path'
p703
S'bt'
p704
sS'unlock_bits'
p705
S'0x3F'
p706
ssS'upload'
p707
(dp708
S'speed'
p709
S'19200'
p710
sS'maximum_size'
p711
S'14336'
p712
sS'protocol'
p713
S'arduino'
p714
sS'disable_flushing'
p715
S'true'
p716
ssS'build'
p717
(dp718
S'core'
p719
S'arduino'
p720
sS'mcu'
p721
S'atmega168'
p722
sS'f_cpu'
p723
S'16000000L'
p724
sS'variant'
p725
S'eightanaloginputs'
p726
ssS'name'
p727
S'Arduino BT w/ ATmega168'
p728
sg106
S'/usr/share/arduino/hardware/arduino'
p729
saa(lp730
S'LilyPadUSB'
p731
a(dp732
S'bootloader'
p733
(dp734
S'extended_fuses'
p735
S'0xce'
p736
sS'high_fuses'
p737
S'0xd8'
p738
sS'low_fuses'
p739
S'0xff'
p740
sS'lock_bits'
p741
S'0x2F'
p742
sS'file'
p743
S'Caterina-LilyPadUSB.hex'
p744
sS'path'
p745
S'caterina-LilyPadUSB'
p746
sS'unlock_bits'
p747
S'0x3F'
p748
ssS'upload'
p749
(dp750
S'speed'
p751
S'57600'
p752
sS'maximum_size'
p753
S'28672'
p754
sS'protocol'
p755
S'avr109'
p756
sS'disable_flushing'
p757
S'true'
p758
ssS'build'
p759
(dp760
S'core'
p761
S'arduino'
p762
sS'f_cpu'
p763
S'8000000L'
p764
sS'vid'
p765
S'0x1B4F'
p766
sS'pid'
p767
S'0x9208'
p768
sS'variant'
p769
S'leonardo'
p770
sS'mcu'
p771
S'atmega32u4'
p772
ssS'name'
p773
S'LilyPad Arduino USB'
p774
sg106
S'/usr/share/arduino/hardware/arduino'
p775
saa(lp776
S'lilypad328'
p777
a(dp778
S'bootloader'
p779
(dp780
S'extended_fuses'
p781
S'0x05'
p782
sS'high_fuses'
p783
S'0xDA'
p784
sS'low_fuses'
p785
S'0xFF'
p786
sS'lock_bits'
p787
S'0x0F'
p788
sS'file'
p789
S'ATmegaBOOT_168_atmega328_pro_8MHz.hex'
p790
sS'path'
p791
S'atmega'
p792
sS'unlock_bits'
p793
S'0x3F'
p794
ssS'upload'
p795
(dp796
S'speed'
p797
S'57600'
p798
sS'maximum_size'
p799
S'30720'
p800
sS'protocol'
p801
S'arduino'
p802
ssS'build'
p803
(dp804
S'core'
p805
S'arduino'
p806
sS'mcu'
p807
S'atmega328p'
p808
sS'f_cpu'
p809
S'8000000L'
p810
sS'variant'
p811
S'standard'
p812
ssS'name'
p813
S'LilyPad Arduino w/ ATmega328'
p814
sg106
S'/usr/share/arduino/hardware/arduino'
p815
saa(lp816
S'lilypad'
p817
a(dp818
S'bootloader'
p819
(dp820
S'extended_fuses'
p821
S'0x00'
p822
sS'high_fuses'
p823
S'0xdd'
p824
sS'low_fuses'
p825
S'0xe2'
p826
sS'lock_bits'
p827
S'0x0F'
p828
sS'file'
p829
S'LilyPadBOOT_168.hex'
p830
sS'path'
p831
S'lilypad'
p832
sS'unlock_bits'
p833
S'0x3F'
p834
ssS'upload'
p835
(dp836
S'speed'
p837
S'19200'
p838
sS'maximum_size'
p839
S'14336'
p840
sS'protocol'
p841
S'arduino'
p842
ssS'build'
p843
(dp844
S'core'
p845
S'arduino'
p846
sS'mcu'
p847
S'atmega168'
p848
sS'f_cpu'
p849
S'8000000L'
p850
sS'variant'
p851
S'standard'
p852
ssS'name'
p853
S'LilyPad Arduino w/ ATmega168'
p854
sg106
S'/usr/share/arduino/hardware/arduino'
p855
saa(lp856
S'pro5v328'
p857
a(dp858
S'bootloader'
p859
(dp860
S'extended_fuses'
p861
S'0x05'
p862
sS'high_fuses'
p863
S'0xDA'
p864
sS'low_fuses'
p865
S'0xFF'
p866
sS'lock_bits'
p867
S'0x0F'
p868
sS'file'
p869
S'ATmegaBOOT_168_atmega328.hex'
p870
sS'path'
p871
S'atmega'
p872
sS'unlock_bits'
p873
S'0x3F'
p874
ssS'upload'
p875
(dp876
S'speed'
p877
S'57600'
p878
sS'maximum_size'
p879
S'30720'
p880
sS'protocol'
p881
S'arduino'
p882
ssS'build'
p883
(dp884
S'core'
p885
S'arduino'
p886
sS'mcu'
p887
S'atmega328p'
p888
sS'f_cpu'
p889
S'16000000L'
p890
sS'variant'
p891
S'standard'
p892
ssS'name'
p893
S'Arduino Pro or Pro Mini (5V, 16 MHz) w/ ATmega328'
p894
sg106
S'/usr/share/arduino/hardware/arduino'
p895
saa(lp896
S'pro5v'
p897
a(dp898
S'bootloader'
p899
(dp900
S'extended_fuses'
p901
S'0x00'
p902
sS'high_fuses'
p903
S'0xdd'
p904
sS'low_fuses'
p905
S'0xff'
p906
sS'lock_bits'
p907
S'0x0F'
p908
sS'file'
p909
S'ATmegaBOOT_168_diecimila.hex'
p910
sS'path'
p911
S'atmega'
p912
sS'unlock_bits'
p913
S'0x3F'
p914
ssS'upload'
p915
(dp916
S'speed'
p917
S'19200'
p918
sS'maximum_size'
p919
S'14336'
p920
sS'protocol'
p921
S'arduino'
p922
ssS'build'
p923
(dp924
S'core'
p925
S'arduino'
p926
sS'mcu'
p927
S'atmega168'
p928
sS'f_cpu'
p929
S'16000000L'
p930
sS'variant'
p931
S'standard'
p932
ssS'name'
p933
S'Arduino Pro or Pro Mini (5V, 16 MHz) w/ ATmega168'
p934
sg106
S'/usr/share/arduino/hardware/arduino'
p935
saa(lp936
S'pro328'
p937
a(dp938
S'bootloader'
p939
(dp940
S'extended_fuses'
p941
S'0x05'
p942
sS'high_fuses'
p943
S'0xDA'
p944
sS'low_fuses'
p945
S'0xFF'
p946
sS'lock_bits'
p947
S'0x0F'
p948
sS'file'
p949
S'ATmegaBOOT_168_atmega328_pro_8MHz.hex'
p950
sS'path'
p951
S'atmega'
p952
sS'unlock_bits'
p953
S'0x3F'
p954
ssS'upload'
p955
(dp956
S'speed'
p957
S'57600'
p958
sS'maximum_size'
p959
S'30720'
p960
sS'protocol'
p961
S'arduino'
p962
ssS'build'
p963
(dp964
S'core'
p965
S'arduino'
p966
sS'mcu'
p967
S'atmega328p'
p968
sS'f_cpu'
p969
S'8000000L'
p970
sS'variant'
p971
S'standard'
p972
ssS'name'
p973
S'Arduino Pro or Pro Mini (3.3V, 8 MHz) w/ ATmega328'
p974
sg106
S'/usr/share/arduino/hardware/arduino'
p975
saa(lp976
S'pro'
p977
a(dp978
S'bootloader'
p979
(dp980
S'extended_fuses'
p981
S'0x00'
p982
sS'high_fuses'
p983
S'0xdd'
p984
sS'low_fuses'
p985
S'0xc6'
p986
sS'lock_bits'
p987
S'0x0F'
p988
sS'file'
p989
S'ATmegaBOOT_168_pro_8MHz.hex'
p990
sS'path'
p991
S'atmega'
p992
sS'unlock_bits'
p993
S'0x3F'
p994
ssS'upload'
p995
(dp996
S'speed'
p997
S'19200'
p998
sS'maximum_size'
p999
S'14336'
p1000
sS'protocol'
p1001
S'arduino'
p1002
ssS'build'
p1003
(dp1004
S'core'
p1005
S'arduino'
p1006
sS'mcu'
p1007
S'atmega168'
p1008
sS'f_cpu'
p1009
S'8000000L'
p1010
sS'variant'
p1011
S'standard'
p1012
ssS'name'
p1013
S'Arduino Pro or Pro Mini (3.3V, 8 MHz) w/ ATmega168'
p1014
sg106
S'/usr/share/arduino/hardware/arduino'
p1015
saa(lp1016
S'atmega168'
p1017
a(dp1018
S'bootloader'
p1019
(dp1020
S'extended_fuses'
p1021
S'0x00'
p1022
sS'high_fuses'
p1023
S'0xdd'
p1024
sS'low_fuses'
p1025
S'0xff'
p1026
sS'lock_bits'
p1027
S'0x0F'
p1028
sS'file'
p1029
S'ATmegaBOOT_168_ng.hex'
p1030
sS'path'
p1031
S'atmega'
p1032
sS'unlock_bits'
p1033
S'0x3F'
p1034
ssS'upload'
p1035
(dp1036
S'speed'
p1037
S'19200'
p1038
sS'maximum_size'
p1039
S'14336'
p1040
sS'protocol'
p1041
S'arduino'
p1042
ssS'build'
p1043
(dp1044
S'core'
p1045
S'arduino'
p1046
sS'mcu'
p1047
S'atmega168'
p1048
sS'f_cpu'
p1049
S'16000000L'
p1050
sS'variant'
p1051
S'standard'
p1052
ssS'name'
p1053
S'Arduino NG or older w/ ATmega168'
p1054
sg106
S'/usr/share/arduino/hardware/arduino'
p1055
saa(lp1056
S'atmega8'
p1057
a(dp1058
S'bootloader'
p1059
(dp1060
S'high_fuses'
p1061
S'0xca'
p1062
sS'low_fuses'
p1063
S'0xdf'
p1064
sS'lock_bits'
p1065
S'0x0F'
p1066
sS'file'
p1067
S'ATmegaBOOT-prod-firmware-2009-11-07.hex'
p1068
sS'path'
p1069
S'atmega8'
p1070
sS'unlock_bits'
p1071
S'0x3F'
p1072
ssS'upload'
p1073
(dp1074
S'speed'
p1075
S'19200'
p1076
sS'maximum_size'
p1077
S'7168'
p1078
sS'protocol'
p1079
S'arduino'
p1080
ssS'build'
p1081
(dp1082
S'core'
p1083
S'arduino'
p1084
sS'mcu'
p1085
S'atmega8'
p1086
sS'f_cpu'
p1087
S'16000000L'
p1088
sS'variant'
p1089
S'standard'
p1090
ssS'name'
p1091
S'Arduino NG or older w/ ATmega8'
p1092
sg106
S'/usr/share/arduino/hardware/arduino'
p1093
saa(lp1094
S'robotControl'
p1095
a(dp1096
S'bootloader'
p1097
(dp1098
S'extended_fuses'
p1099
S'0xcb'
p1100
sS'high_fuses'
p1101
S'0xd8'
p1102
sS'low_fuses'
p1103
S'0xff'
p1104
sS'lock_bits'
p1105
S'0x2F'
p1106
sS'file'
p1107
S'Caterina-Robot-Control.hex'
p1108
sS'path'
p1109
S'caterina-Arduino_Robot'
p1110
sS'unlock_bits'
p1111
S'0x3F'
p1112
ssS'upload'
p1113
(dp1114
S'speed'
p1115
S'57600'
p1116
sS'maximum_size'
p1117
S'28672'
p1118
sS'protocol'
p1119
S'avr109'
p1120
sS'disable_flushing'
p1121
S'true'
p1122
ssS'build'
p1123
(dp1124
S'core'
p1125
S'robot'
p1126
sS'f_cpu'
p1127
S'16000000L'
p1128
sS'vid'
p1129
S'0x2341'
p1130
sS'pid'
p1131
S'0x8038'
p1132
sS'variant'
p1133
S'robot_control'
p1134
sS'mcu'
p1135
S'atmega32u4'
p1136
ssS'name'
p1137
S'Arduino Robot Control'
p1138
sg106
S'/usr/share/arduino/hardware/arduino'
p1139
saa(lp1140
S'robotMotor'
p1141
a(dp1142
S'bootloader'
p1143
(dp1144
S'extended_fuses'
p1145
S'0xcb'
p1146
sS'high_fuses'
p1147
S'0xd8'
p1148
sS'low_fuses'
p1149
S'0xff'
p1150
sS'lock_bits'
p1151
S'0x2F'
p1152
sS'file'
p1153
S'Caterina-Robot-Motor.hex'
p1154
sS'path'
p1155
S'caterina-Arduino_Robot'
p1156
sS'unlock_bits'
p1157
S'0x3F'
p1158
ssS'upload'
p1159
(dp1160
S'speed'
p1161
S'57600'
p1162
sS'maximum_size'
p1163
S'28672'
p1164
sS'protocol'
p1165
S'avr109'
p1166
sS'disable_flushing'
p1167
S'true'
p1168
ssS'build'
p1169
(dp1170
S'core'
p1171
S'robot'
p1172
sS'f_cpu'
p1173
S'16000000L'
p1174
sS'vid'
p1175
S'0x2341'
p1176
sS'pid'
p1177
S'0x8039'
p1178
sS'variant'
p1179
S'robot_motor'
p1180
sS'mcu'
p1181
S'atmega32u4'
p1182
ssS'name'
p1183
S'Arduino Robot Motor'
p1184
sg106
S'/usr/share/arduino/hardware/arduino'
p1185
saatp1186
Rp1187
(dp1188
S'default'
p1189
S'uno'
p1190
sbtp1191
a(S'used_libs'
p1192
(lp1193
S'lib/MCP23S17'
p1194
aS'/usr/share/arduino/libraries/EEPROM'
p1195
aS'/usr/share/arduino/libraries/SPI'
p1196
aS'/usr/share/arduino/hardware/arduino/cores/arduino'
p1197
atp1198
a(S'make'
p1199
S'/usr/share/arduino/hardware/tools/avr/bin/make'
p1200
tp1201
a(S'arduino_libraries_dir'
p1202
S'/usr/share/arduino/libraries'
p1203
tp1204
a(S'cc'
p1205
S'/usr/share/arduino/hardware/tools/avr/bin/avr-gcc'
p1206
tp1207
a(S'cflags'
p1208
g2
(g3
g4
(lp1209
tp1210
Rp1211
tp1212
a(S'cxxflags'
p1213
g2
(g3
g4
(lp1214
S'-fno-exceptions'
p1215
atp1216
Rp1217
tp1218
a(S'arduino_variants_dir'
p1219
S'/usr/share/arduino/hardware/arduino/variants'
p1220
tp1221
a(S'serial'
p1222
S'/usr/bin/picocom'
p1223
tp1224
a(S'stty'
p1225
S'/bin/stty'
p1226
tp1227
a(S'version.txt'
p1228
S'/usr/share/arduino/lib/version.txt'
p1229
tp1230
a(S'arduino_core_dir'
p1231
g1197
tp1232
a(S'boards.txt'
p1233
(lp1234
S'/usr/share/arduino/hardware/arduino/boards.txt'
p1235
atp1236
a(S'avrdude.conf'
p1237
S'/usr/share/arduino/hardware/tools/avrdude.conf'
p1238
tp1239
a(S'deps'
p1240
g2
(g3
g4
(lp1241
S'.build/atmega328/src/dependencies.d'
p1242
aS'.build/atmega328/MCP23S17/dependencies.d'
p1243
aS'.build/atmega328/arduino/dependencies.d'
p1244
aS'.build/atmega328/EEPROM/dependencies.d'
p1245
aS'.build/atmega328/SPI/dependencies.d'
p1246
atp1247
Rp1248
tp1249
a.