(lp0
(S'cppflags'
p1
ccopy_reg
_reconstructor
p2
(cino.utils
SpaceList
p3
c__builtin__
list
p4
(lp5
S'-mmcu=atmega328p'
p6
aS'-DF_CPU=16000000L'
p7
aS'-DARDUINO=105'
p8
aS'-I/usr/share/arduino/hardware/arduino/cores/arduino'
p9
aS'-ffunction-sections'
p10
aS'-fdata-sections'
p11
aS'-g'
p12
aS'-Os'
p13
aS'-w'
p14
aS'-I/usr/share/arduino/hardware/arduino/variants/standard'
p15
aS'-I/usr/share/arduino/libraries/EEPROM'
p16
aS'-I/usr/share/arduino/hardware/arduino/cores/arduino'
p17
aS'-I/usr/share/arduino/hardware/arduino/cores/arduino/avr-libc'
p18
atp19
Rp20
tp21
a(S'cxx'
p22
S'/usr/share/arduino/hardware/tools/avr/bin/avr-g++'
p23
tp24
a(S'build_dir'
p25
S'.build/atmega328'
p26
tp27
a(S'avrdude'
p28
S'/usr/share/arduino/hardware/tools/avrdude'
p29
tp30
a(S'ar'
p31
S'/usr/share/arduino/hardware/tools/avr/bin/avr-ar'
p32
tp33
a(S'names'
p34
(dp35
S'cpp'
p36
S'%s.cpp'
p37
sS'obj'
p38
S'%s.o'
p39
sS'lib'
p40
S'lib%s.a'
p41
sS'deps'
p42
S'%s.d'
p43
stp44
a(S'ldflags'
p45
g2
(g3
g4
(lp46
g6
aS'-Wl,-Os'
p47
aS'-Wl,--gc-sections'
p48
atp49
Rp50
tp51
a(S'arduino_lib_version'
p52
g2
(cino.environment
Version
p53
c__builtin__
tuple
p54
(I1
I0
I5
tp55
tp56
Rp57
tp58
a(S'objcopy'
p59
S'/usr/share/arduino/hardware/tools/avr/bin/avr-objcopy'
p60
tp61
a(S'board_models'
p62
cino.environment
BoardModels
p63
((lp64
(lp65
S'uno'
p66
a(dp67
S'build'
p68
(dp69
S'core'
p70
S'arduino'
p71
sS'mcu'
p72
S'atmega328p'
p73
sS'f_cpu'
p74
S'16000000L'
p75
sS'variant'
p76
S'standard'
p77
ssS'bootloader'
p78
(dp79
S'extended_fuses'
p80
S'0x05'
p81
sS'high_fuses'
p82
S'0xde'
p83
sS'low_fuses'
p84
S'0xff'
p85
sS'lock_bits'
p86
S'0x0F'
p87
sS'file'
p88
S'optiboot_atmega328.hex'
p89
sS'path'
p90
S'optiboot'
p91
sS'unlock_bits'
p92
S'0x3F'
p93
ssS'upload'
p94
(dp95
S'speed'
p96
S'115200'
p97
sS'maximum_size'
p98
S'32256'
p99
sS'protocol'
p100
S'arduino'
p101
ssS'name'
p102
S'Arduino Uno'
p103
sS'_coredir'
p104
S'/usr/share/arduino/hardware/arduino'
p105
saa(lp106
S'atmega328'
p107
a(dp108
S'build'
p109
(dp110
S'core'
p111
S'arduino'
p112
sS'mcu'
p113
S'atmega328p'
p114
sS'f_cpu'
p115
S'16000000L'
p116
sS'variant'
p117
S'standard'
p118
ssS'bootloader'
p119
(dp120
S'extended_fuses'
p121
S'0x05'
p122
sS'high_fuses'
p123
S'0xDA'
p124
sS'low_fuses'
p125
S'0xFF'
p126
sS'lock_bits'
p127
S'0x0F'
p128
sS'file'
p129
S'ATmegaBOOT_168_atmega328.hex'
p130
sS'path'
p131
S'atmega'
p132
sS'unlock_bits'
p133
S'0x3F'
p134
ssS'upload'
p135
(dp136
S'speed'
p137
S'57600'
p138
sS'maximum_size'
p139
S'30720'
p140
sS'protocol'
p141
S'arduino'
p142
ssS'name'
p143
S'Arduino Duemilanove w/ ATmega328'
p144
sg104
S'/usr/share/arduino/hardware/arduino'
p145
saa(lp146
S'diecimila'
p147
a(dp148
S'build'
p149
(dp150
S'core'
p151
S'arduino'
p152
sS'mcu'
p153
S'atmega168'
p154
sS'f_cpu'
p155
S'16000000L'
p156
sS'variant'
p157
S'standard'
p158
ssS'bootloader'
p159
(dp160
S'extended_fuses'
p161
S'0x00'
p162
sS'high_fuses'
p163
S'0xdd'
p164
sS'low_fuses'
p165
S'0xff'
p166
sS'lock_bits'
p167
S'0x0F'
p168
sS'file'
p169
S'ATmegaBOOT_168_diecimila.hex'
p170
sS'path'
p171
S'atmega'
p172
sS'unlock_bits'
p173
S'0x3F'
p174
ssS'upload'
p175
(dp176
S'speed'
p177
S'19200'
p178
sS'maximum_size'
p179
S'14336'
p180
sS'protocol'
p181
S'arduino'
p182
ssS'name'
p183
S'Arduino Diecimila or Duemilanove w/ ATmega168'
p184
sg104
S'/usr/share/arduino/hardware/arduino'
p185
saa(lp186
S'nano328'
p187
a(dp188
S'build'
p189
(dp190
S'core'
p191
S'arduino'
p192
sS'mcu'
p193
S'atmega328p'
p194
sS'f_cpu'
p195
S'16000000L'
p196
sS'variant'
p197
S'eightanaloginputs'
p198
ssS'bootloader'
p199
(dp200
S'extended_fuses'
p201
S'0x05'
p202
sS'high_fuses'
p203
S'0xDA'
p204
sS'low_fuses'
p205
S'0xFF'
p206
sS'lock_bits'
p207
S'0x0F'
p208
sS'file'
p209
S'ATmegaBOOT_168_atmega328.hex'
p210
sS'path'
p211
S'atmega'
p212
sS'unlock_bits'
p213
S'0x3F'
p214
ssS'upload'
p215
(dp216
S'speed'
p217
S'57600'
p218
sS'maximum_size'
p219
S'30720'
p220
sS'protocol'
p221
S'arduino'
p222
ssS'name'
p223
S'Arduino Nano w/ ATmega328'
p224
sg104
S'/usr/share/arduino/hardware/arduino'
p225
saa(lp226
S'nano'
p227
a(dp228
S'build'
p229
(dp230
S'core'
p231
S'arduino'
p232
sS'mcu'
p233
S'atmega168'
p234
sS'f_cpu'
p235
S'16000000L'
p236
sS'variant'
p237
S'eightanaloginputs'
p238
ssS'bootloader'
p239
(dp240
S'extended_fuses'
p241
S'0x00'
p242
sS'high_fuses'
p243
S'0xdd'
p244
sS'low_fuses'
p245
S'0xff'
p246
sS'lock_bits'
p247
S'0x0F'
p248
sS'file'
p249
S'ATmegaBOOT_168_diecimila.hex'
p250
sS'path'
p251
S'atmega'
p252
sS'unlock_bits'
p253
S'0x3F'
p254
ssS'upload'
p255
(dp256
S'speed'
p257
S'19200'
p258
sS'maximum_size'
p259
S'14336'
p260
sS'protocol'
p261
S'arduino'
p262
ssS'name'
p263
S'Arduino Nano w/ ATmega168'
p264
sg104
S'/usr/share/arduino/hardware/arduino'
p265
saa(lp266
S'mega2560'
p267
a(dp268
S'build'
p269
(dp270
S'core'
p271
S'arduino'
p272
sS'mcu'
p273
S'atmega2560'
p274
sS'f_cpu'
p275
S'16000000L'
p276
sS'variant'
p277
S'mega'
p278
ssS'bootloader'
p279
(dp280
S'extended_fuses'
p281
S'0xFD'
p282
sS'high_fuses'
p283
S'0xD8'
p284
sS'low_fuses'
p285
S'0xFF'
p286
sS'lock_bits'
p287
S'0x0F'
p288
sS'file'
p289
S'stk500boot_v2_mega2560.hex'
p290
sS'path'
p291
S'stk500v2'
p292
sS'unlock_bits'
p293
S'0x3F'
p294
ssS'upload'
p295
(dp296
S'speed'
p297
S'115200'
p298
sS'maximum_size'
p299
S'258048'
p300
sS'protocol'
p301
S'wiring'
p302
ssS'name'
p303
S'Arduino Mega 2560 or Mega ADK'
p304
sg104
S'/usr/share/arduino/hardware/arduino'
p305
saa(lp306
S'mega'
p307
a(dp308
S'build'
p309
(dp310
S'core'
p311
S'arduino'
p312
sS'mcu'
p313
S'atmega1280'
p314
sS'f_cpu'
p315
S'16000000L'
p316
sS'variant'
p317
S'mega'
p318
ssS'bootloader'
p319
(dp320
S'extended_fuses'
p321
S'0xF5'
p322
sS'high_fuses'
p323
S'0xDA'
p324
sS'low_fuses'
p325
S'0xFF'
p326
sS'lock_bits'
p327
S'0x0F'
p328
sS'file'
p329
S'ATmegaBOOT_168_atmega1280.hex'
p330
sS'path'
p331
S'atmega'
p332
sS'unlock_bits'
p333
S'0x3F'
p334
ssS'upload'
p335
(dp336
S'speed'
p337
S'57600'
p338
sS'maximum_size'
p339
S'126976'
p340
sS'protocol'
p341
S'arduino'
p342
ssS'name'
p343
S'Arduino Mega (ATmega1280)'
p344
sg104
S'/usr/share/arduino/hardware/arduino'
p345
saa(lp346
S'leonardo'
p347
a(dp348
S'build'
p349
(dp350
S'core'
p351
S'arduino'
p352
sS'f_cpu'
p353
S'16000000L'
p354
sS'vid'
p355
S'0x2341'
p356
sS'pid'
p357
S'0x8036'
p358
sS'variant'
p359
S'leonardo'
p360
sS'mcu'
p361
S'atmega32u4'
p362
ssS'bootloader'
p363
(dp364
S'extended_fuses'
p365
S'0xcb'
p366
sS'high_fuses'
p367
S'0xd8'
p368
sS'low_fuses'
p369
S'0xff'
p370
sS'lock_bits'
p371
S'0x2F'
p372
sS'file'
p373
S'Caterina-Leonardo.hex'
p374
sS'path'
p375
S'caterina'
p376
sS'unlock_bits'
p377
S'0x3F'
p378
ssS'upload'
p379
(dp380
S'speed'
p381
S'57600'
p382
sS'maximum_size'
p383
S'28672'
p384
sS'protocol'
p385
S'avr109'
p386
sS'disable_flushing'
p387
S'true'
p388
ssS'name'
p389
S'Arduino Leonardo'
p390
sg104
S'/usr/share/arduino/hardware/arduino'
p391
saa(lp392
S'esplora'
p393
a(dp394
S'build'
p395
(dp396
S'core'
p397
S'arduino'
p398
sS'f_cpu'
p399
S'16000000L'
p400
sS'vid'
p401
S'0x2341'
p402
sS'pid'
p403
S'0x803C'
p404
sS'variant'
p405
S'leonardo'
p406
sS'mcu'
p407
S'atmega32u4'
p408
ssS'bootloader'
p409
(dp410
S'extended_fuses'
p411
S'0xcb'
p412
sS'high_fuses'
p413
S'0xd8'
p414
sS'low_fuses'
p415
S'0xff'
p416
sS'lock_bits'
p417
S'0x2F'
p418
sS'file'
p419
S'Caterina-Esplora.hex'
p420
sS'path'
p421
S'caterina'
p422
sS'unlock_bits'
p423
S'0x3F'
p424
ssS'upload'
p425
(dp426
S'speed'
p427
S'57600'
p428
sS'maximum_size'
p429
S'28672'
p430
sS'protocol'
p431
S'avr109'
p432
sS'disable_flushing'
p433
S'true'
p434
ssS'name'
p435
S'Arduino Esplora'
p436
sg104
S'/usr/share/arduino/hardware/arduino'
p437
saa(lp438
S'micro'
p439
a(dp440
S'build'
p441
(dp442
S'core'
p443
S'arduino'
p444
sS'f_cpu'
p445
S'16000000L'
p446
sS'vid'
p447
S'0x2341'
p448
sS'pid'
p449
S'0x8037'
p450
sS'variant'
p451
S'micro'
p452
sS'mcu'
p453
S'atmega32u4'
p454
ssS'bootloader'
p455
(dp456
S'extended_fuses'
p457
S'0xcb'
p458
sS'high_fuses'
p459
S'0xd8'
p460
sS'low_fuses'
p461
S'0xff'
p462
sS'lock_bits'
p463
S'0x2F'
p464
sS'file'
p465
S'Caterina-Micro.hex'
p466
sS'path'
p467
S'caterina'
p468
sS'unlock_bits'
p469
S'0x3F'
p470
ssS'upload'
p471
(dp472
S'speed'
p473
S'57600'
p474
sS'maximum_size'
p475
S'28672'
p476
sS'protocol'
p477
S'avr109'
p478
sS'disable_flushing'
p479
S'true'
p480
ssS'name'
p481
S'Arduino Micro'
p482
sg104
S'/usr/share/arduino/hardware/arduino'
p483
saa(lp484
S'mini328'
p485
a(dp486
S'build'
p487
(dp488
S'core'
p489
S'arduino'
p490
sS'mcu'
p491
S'atmega328p'
p492
sS'f_cpu'
p493
S'16000000L'
p494
sS'variant'
p495
S'eightanaloginputs'
p496
ssS'bootloader'
p497
(dp498
S'extended_fuses'
p499
S'0x05'
p500
sS'high_fuses'
p501
S'0xd8'
p502
sS'low_fuses'
p503
S'0xff'
p504
sS'lock_bits'
p505
S'0x0F'
p506
sS'file'
p507
S'optiboot_atmega328-Mini.hex'
p508
sS'path'
p509
S'optiboot'
p510
sS'unlock_bits'
p511
S'0x3F'
p512
ssS'upload'
p513
(dp514
S'speed'
p515
S'115200'
p516
sS'maximum_size'
p517
S'28672'
p518
sS'protocol'
p519
S'arduino'
p520
ssS'name'
p521
S'Arduino Mini w/ ATmega328'
p522
sg104
S'/usr/share/arduino/hardware/arduino'
p523
saa(lp524
S'mini'
p525
a(dp526
S'build'
p527
(dp528
S'core'
p529
S'arduino'
p530
sS'mcu'
p531
S'atmega168'
p532
sS'f_cpu'
p533
S'16000000L'
p534
sS'variant'
p535
S'eightanaloginputs'
p536
ssS'bootloader'
p537
(dp538
S'extended_fuses'
p539
S'0x00'
p540
sS'high_fuses'
p541
S'0xdd'
p542
sS'low_fuses'
p543
S'0xff'
p544
sS'lock_bits'
p545
S'0x0F'
p546
sS'file'
p547
S'ATmegaBOOT_168_ng.hex'
p548
sS'path'
p549
S'atmega'
p550
sS'unlock_bits'
p551
S'0x3F'
p552
ssS'upload'
p553
(dp554
S'speed'
p555
S'19200'
p556
sS'maximum_size'
p557
S'14336'
p558
sS'protocol'
p559
S'arduino'
p560
ssS'name'
p561
S'Arduino Mini w/ ATmega168'
p562
sg104
S'/usr/share/arduino/hardware/arduino'
p563
saa(lp564
S'ethernet'
p565
a(dp566
S'build'
p567
(dp568
S'f_cpu'
p569
S'16000000L'
p570
sS'mcu'
p571
S'atmega328p'
p572
sS'variant'
p573
S'standard'
p574
sS'core'
p575
S'arduino'
p576
ssS'bootloader'
p577
(dp578
S'extended_fuses'
p579
S'0x05'
p580
sS'high_fuses'
p581
S'0xde'
p582
sS'low_fuses'
p583
S'0xff'
p584
sS'lock_bits'
p585
S'0x0F'
p586
sS'file'
p587
S'optiboot_atmega328.hex'
p588
sS'path'
p589
S'optiboot'
p590
sS'unlock_bits'
p591
S'0x3F'
p592
ssS'upload'
p593
(dp594
S'speed'
p595
S'115200'
p596
sS'maximum_size'
p597
S'32256'
p598
sS'protocol'
p599
S'arduino'
p600
ssS'name'
p601
S'Arduino Ethernet'
p602
sg104
S'/usr/share/arduino/hardware/arduino'
p603
saa(lp604
S'fio'
p605
a(dp606
S'build'
p607
(dp608
S'core'
p609
S'arduino'
p610
sS'mcu'
p611
S'atmega328p'
p612
sS'f_cpu'
p613
S'8000000L'
p614
sS'variant'
p615
S'eightanaloginputs'
p616
ssS'bootloader'
p617
(dp618
S'extended_fuses'
p619
S'0x05'
p620
sS'high_fuses'
p621
S'0xDA'
p622
sS'low_fuses'
p623
S'0xFF'
p624
sS'lock_bits'
p625
S'0x0F'
p626
sS'file'
p627
S'ATmegaBOOT_168_atmega328_pro_8MHz.hex'
p628
sS'path'
p629
S'arduino:atmega'
p630
sS'unlock_bits'
p631
S'0x3F'
p632
ssS'upload'
p633
(dp634
S'speed'
p635
S'57600'
p636
sS'maximum_size'
p637
S'30720'
p638
sS'protocol'
p639
S'arduino'
p640
ssS'name'
p641
S'Arduino Fio'
p642
sg104
S'/usr/share/arduino/hardware/arduino'
p643
saa(lp644
S'bt328'
p645
a(dp646
S'build'
p647
(dp648
S'core'
p649
S'arduino'
p650
sS'mcu'
p651
S'atmega328p'
p652
sS'f_cpu'
p653
S'16000000L'
p654
sS'variant'
p655
S'eightanaloginputs'
p656
ssS'bootloader'
p657
(dp658
S'extended_fuses'
p659
S'0x05'
p660
sS'high_fuses'
p661
S'0xd8'
p662
sS'low_fuses'
p663
S'0xff'
p664
sS'lock_bits'
p665
S'0x0F'
p666
sS'file'
p667
S'ATmegaBOOT_168_atmega328_bt.hex'
p668
sS'path'
p669
S'bt'
p670
sS'unlock_bits'
p671
S'0x3F'
p672
ssS'upload'
p673
(dp674
S'speed'
p675
S'19200'
p676
sS'maximum_size'
p677
S'28672'
p678
sS'protocol'
p679
S'arduino'
p680
sS'disable_flushing'
p681
S'true'
p682
ssS'name'
p683
S'Arduino BT w/ ATmega328'
p684
sg104
S'/usr/share/arduino/hardware/arduino'
p685
saa(lp686
S'bt'
p687
a(dp688
S'build'
p689
(dp690
S'core'
p691
S'arduino'
p692
sS'mcu'
p693
S'atmega168'
p694
sS'f_cpu'
p695
S'16000000L'
p696
sS'variant'
p697
S'eightanaloginputs'
p698
ssS'bootloader'
p699
(dp700
S'extended_fuses'
p701
S'0x00'
p702
sS'high_fuses'
p703
S'0xdd'
p704
sS'low_fuses'
p705
S'0xff'
p706
sS'lock_bits'
p707
S'0x0F'
p708
sS'file'
p709
S'ATmegaBOOT_168.hex'
p710
sS'path'
p711
S'bt'
p712
sS'unlock_bits'
p713
S'0x3F'
p714
ssS'upload'
p715
(dp716
S'speed'
p717
S'19200'
p718
sS'maximum_size'
p719
S'14336'
p720
sS'protocol'
p721
S'arduino'
p722
sS'disable_flushing'
p723
S'true'
p724
ssS'name'
p725
S'Arduino BT w/ ATmega168'
p726
sg104
S'/usr/share/arduino/hardware/arduino'
p727
saa(lp728
S'LilyPadUSB'
p729
a(dp730
S'build'
p731
(dp732
S'core'
p733
S'arduino'
p734
sS'f_cpu'
p735
S'8000000L'
p736
sS'vid'
p737
S'0x1B4F'
p738
sS'pid'
p739
S'0x9208'
p740
sS'variant'
p741
S'leonardo'
p742
sS'mcu'
p743
S'atmega32u4'
p744
ssS'bootloader'
p745
(dp746
S'extended_fuses'
p747
S'0xce'
p748
sS'high_fuses'
p749
S'0xd8'
p750
sS'low_fuses'
p751
S'0xff'
p752
sS'lock_bits'
p753
S'0x2F'
p754
sS'file'
p755
S'Caterina-LilyPadUSB.hex'
p756
sS'path'
p757
S'caterina-LilyPadUSB'
p758
sS'unlock_bits'
p759
S'0x3F'
p760
ssS'upload'
p761
(dp762
S'speed'
p763
S'57600'
p764
sS'maximum_size'
p765
S'28672'
p766
sS'protocol'
p767
S'avr109'
p768
sS'disable_flushing'
p769
S'true'
p770
ssS'name'
p771
S'LilyPad Arduino USB'
p772
sg104
S'/usr/share/arduino/hardware/arduino'
p773
saa(lp774
S'lilypad328'
p775
a(dp776
S'build'
p777
(dp778
S'core'
p779
S'arduino'
p780
sS'mcu'
p781
S'atmega328p'
p782
sS'f_cpu'
p783
S'8000000L'
p784
sS'variant'
p785
S'standard'
p786
ssS'bootloader'
p787
(dp788
S'extended_fuses'
p789
S'0x05'
p790
sS'high_fuses'
p791
S'0xDA'
p792
sS'low_fuses'
p793
S'0xFF'
p794
sS'lock_bits'
p795
S'0x0F'
p796
sS'file'
p797
S'ATmegaBOOT_168_atmega328_pro_8MHz.hex'
p798
sS'path'
p799
S'atmega'
p800
sS'unlock_bits'
p801
S'0x3F'
p802
ssS'upload'
p803
(dp804
S'speed'
p805
S'57600'
p806
sS'maximum_size'
p807
S'30720'
p808
sS'protocol'
p809
S'arduino'
p810
ssS'name'
p811
S'LilyPad Arduino w/ ATmega328'
p812
sg104
S'/usr/share/arduino/hardware/arduino'
p813
saa(lp814
S'lilypad'
p815
a(dp816
S'build'
p817
(dp818
S'core'
p819
S'arduino'
p820
sS'mcu'
p821
S'atmega168'
p822
sS'f_cpu'
p823
S'8000000L'
p824
sS'variant'
p825
S'standard'
p826
ssS'bootloader'
p827
(dp828
S'extended_fuses'
p829
S'0x00'
p830
sS'high_fuses'
p831
S'0xdd'
p832
sS'low_fuses'
p833
S'0xe2'
p834
sS'lock_bits'
p835
S'0x0F'
p836
sS'file'
p837
S'LilyPadBOOT_168.hex'
p838
sS'path'
p839
S'lilypad'
p840
sS'unlock_bits'
p841
S'0x3F'
p842
ssS'upload'
p843
(dp844
S'speed'
p845
S'19200'
p846
sS'maximum_size'
p847
S'14336'
p848
sS'protocol'
p849
S'arduino'
p850
ssS'name'
p851
S'LilyPad Arduino w/ ATmega168'
p852
sg104
S'/usr/share/arduino/hardware/arduino'
p853
saa(lp854
S'pro5v328'
p855
a(dp856
S'build'
p857
(dp858
S'core'
p859
S'arduino'
p860
sS'mcu'
p861
S'atmega328p'
p862
sS'f_cpu'
p863
S'16000000L'
p864
sS'variant'
p865
S'standard'
p866
ssS'bootloader'
p867
(dp868
S'extended_fuses'
p869
S'0x05'
p870
sS'high_fuses'
p871
S'0xDA'
p872
sS'low_fuses'
p873
S'0xFF'
p874
sS'lock_bits'
p875
S'0x0F'
p876
sS'file'
p877
S'ATmegaBOOT_168_atmega328.hex'
p878
sS'path'
p879
S'atmega'
p880
sS'unlock_bits'
p881
S'0x3F'
p882
ssS'upload'
p883
(dp884
S'speed'
p885
S'57600'
p886
sS'maximum_size'
p887
S'30720'
p888
sS'protocol'
p889
S'arduino'
p890
ssS'name'
p891
S'Arduino Pro or Pro Mini (5V, 16 MHz) w/ ATmega328'
p892
sg104
S'/usr/share/arduino/hardware/arduino'
p893
saa(lp894
S'pro5v'
p895
a(dp896
S'build'
p897
(dp898
S'core'
p899
S'arduino'
p900
sS'mcu'
p901
S'atmega168'
p902
sS'f_cpu'
p903
S'16000000L'
p904
sS'variant'
p905
S'standard'
p906
ssS'bootloader'
p907
(dp908
S'extended_fuses'
p909
S'0x00'
p910
sS'high_fuses'
p911
S'0xdd'
p912
sS'low_fuses'
p913
S'0xff'
p914
sS'lock_bits'
p915
S'0x0F'
p916
sS'file'
p917
S'ATmegaBOOT_168_diecimila.hex'
p918
sS'path'
p919
S'atmega'
p920
sS'unlock_bits'
p921
S'0x3F'
p922
ssS'upload'
p923
(dp924
S'speed'
p925
S'19200'
p926
sS'maximum_size'
p927
S'14336'
p928
sS'protocol'
p929
S'arduino'
p930
ssS'name'
p931
S'Arduino Pro or Pro Mini (5V, 16 MHz) w/ ATmega168'
p932
sg104
S'/usr/share/arduino/hardware/arduino'
p933
saa(lp934
S'pro328'
p935
a(dp936
S'build'
p937
(dp938
S'core'
p939
S'arduino'
p940
sS'mcu'
p941
S'atmega328p'
p942
sS'f_cpu'
p943
S'8000000L'
p944
sS'variant'
p945
S'standard'
p946
ssS'bootloader'
p947
(dp948
S'extended_fuses'
p949
S'0x05'
p950
sS'high_fuses'
p951
S'0xDA'
p952
sS'low_fuses'
p953
S'0xFF'
p954
sS'lock_bits'
p955
S'0x0F'
p956
sS'file'
p957
S'ATmegaBOOT_168_atmega328_pro_8MHz.hex'
p958
sS'path'
p959
S'atmega'
p960
sS'unlock_bits'
p961
S'0x3F'
p962
ssS'upload'
p963
(dp964
S'speed'
p965
S'57600'
p966
sS'maximum_size'
p967
S'30720'
p968
sS'protocol'
p969
S'arduino'
p970
ssS'name'
p971
S'Arduino Pro or Pro Mini (3.3V, 8 MHz) w/ ATmega328'
p972
sg104
S'/usr/share/arduino/hardware/arduino'
p973
saa(lp974
S'pro'
p975
a(dp976
S'build'
p977
(dp978
S'core'
p979
S'arduino'
p980
sS'mcu'
p981
S'atmega168'
p982
sS'f_cpu'
p983
S'8000000L'
p984
sS'variant'
p985
S'standard'
p986
ssS'bootloader'
p987
(dp988
S'extended_fuses'
p989
S'0x00'
p990
sS'high_fuses'
p991
S'0xdd'
p992
sS'low_fuses'
p993
S'0xc6'
p994
sS'lock_bits'
p995
S'0x0F'
p996
sS'file'
p997
S'ATmegaBOOT_168_pro_8MHz.hex'
p998
sS'path'
p999
S'atmega'
p1000
sS'unlock_bits'
p1001
S'0x3F'
p1002
ssS'upload'
p1003
(dp1004
S'speed'
p1005
S'19200'
p1006
sS'maximum_size'
p1007
S'14336'
p1008
sS'protocol'
p1009
S'arduino'
p1010
ssS'name'
p1011
S'Arduino Pro or Pro Mini (3.3V, 8 MHz) w/ ATmega168'
p1012
sg104
S'/usr/share/arduino/hardware/arduino'
p1013
saa(lp1014
S'atmega168'
p1015
a(dp1016
S'build'
p1017
(dp1018
S'core'
p1019
S'arduino'
p1020
sS'mcu'
p1021
S'atmega168'
p1022
sS'f_cpu'
p1023
S'16000000L'
p1024
sS'variant'
p1025
S'standard'
p1026
ssS'bootloader'
p1027
(dp1028
S'extended_fuses'
p1029
S'0x00'
p1030
sS'high_fuses'
p1031
S'0xdd'
p1032
sS'low_fuses'
p1033
S'0xff'
p1034
sS'lock_bits'
p1035
S'0x0F'
p1036
sS'file'
p1037
S'ATmegaBOOT_168_ng.hex'
p1038
sS'path'
p1039
S'atmega'
p1040
sS'unlock_bits'
p1041
S'0x3F'
p1042
ssS'upload'
p1043
(dp1044
S'speed'
p1045
S'19200'
p1046
sS'maximum_size'
p1047
S'14336'
p1048
sS'protocol'
p1049
S'arduino'
p1050
ssS'name'
p1051
S'Arduino NG or older w/ ATmega168'
p1052
sg104
S'/usr/share/arduino/hardware/arduino'
p1053
saa(lp1054
S'atmega8'
p1055
a(dp1056
S'build'
p1057
(dp1058
S'core'
p1059
S'arduino'
p1060
sS'mcu'
p1061
S'atmega8'
p1062
sS'f_cpu'
p1063
S'16000000L'
p1064
sS'variant'
p1065
S'standard'
p1066
ssS'bootloader'
p1067
(dp1068
S'high_fuses'
p1069
S'0xca'
p1070
sS'low_fuses'
p1071
S'0xdf'
p1072
sS'lock_bits'
p1073
S'0x0F'
p1074
sS'file'
p1075
S'ATmegaBOOT-prod-firmware-2009-11-07.hex'
p1076
sS'path'
p1077
S'atmega8'
p1078
sS'unlock_bits'
p1079
S'0x3F'
p1080
ssS'upload'
p1081
(dp1082
S'speed'
p1083
S'19200'
p1084
sS'maximum_size'
p1085
S'7168'
p1086
sS'protocol'
p1087
S'arduino'
p1088
ssS'name'
p1089
S'Arduino NG or older w/ ATmega8'
p1090
sg104
S'/usr/share/arduino/hardware/arduino'
p1091
saa(lp1092
S'robotControl'
p1093
a(dp1094
S'build'
p1095
(dp1096
S'core'
p1097
S'robot'
p1098
sS'f_cpu'
p1099
S'16000000L'
p1100
sS'vid'
p1101
S'0x2341'
p1102
sS'pid'
p1103
S'0x8038'
p1104
sS'variant'
p1105
S'robot_control'
p1106
sS'mcu'
p1107
S'atmega32u4'
p1108
ssS'bootloader'
p1109
(dp1110
S'extended_fuses'
p1111
S'0xcb'
p1112
sS'high_fuses'
p1113
S'0xd8'
p1114
sS'low_fuses'
p1115
S'0xff'
p1116
sS'lock_bits'
p1117
S'0x2F'
p1118
sS'file'
p1119
S'Caterina-Robot-Control.hex'
p1120
sS'path'
p1121
S'caterina-Arduino_Robot'
p1122
sS'unlock_bits'
p1123
S'0x3F'
p1124
ssS'upload'
p1125
(dp1126
S'speed'
p1127
S'57600'
p1128
sS'maximum_size'
p1129
S'28672'
p1130
sS'protocol'
p1131
S'avr109'
p1132
sS'disable_flushing'
p1133
S'true'
p1134
ssS'name'
p1135
S'Arduino Robot Control'
p1136
sg104
S'/usr/share/arduino/hardware/arduino'
p1137
saa(lp1138
S'robotMotor'
p1139
a(dp1140
S'build'
p1141
(dp1142
S'core'
p1143
S'robot'
p1144
sS'f_cpu'
p1145
S'16000000L'
p1146
sS'vid'
p1147
S'0x2341'
p1148
sS'pid'
p1149
S'0x8039'
p1150
sS'variant'
p1151
S'robot_motor'
p1152
sS'mcu'
p1153
S'atmega32u4'
p1154
ssS'bootloader'
p1155
(dp1156
S'extended_fuses'
p1157
S'0xcb'
p1158
sS'high_fuses'
p1159
S'0xd8'
p1160
sS'low_fuses'
p1161
S'0xff'
p1162
sS'lock_bits'
p1163
S'0x2F'
p1164
sS'file'
p1165
S'Caterina-Robot-Motor.hex'
p1166
sS'path'
p1167
S'caterina-Arduino_Robot'
p1168
sS'unlock_bits'
p1169
S'0x3F'
p1170
ssS'upload'
p1171
(dp1172
S'speed'
p1173
S'57600'
p1174
sS'maximum_size'
p1175
S'28672'
p1176
sS'protocol'
p1177
S'avr109'
p1178
sS'disable_flushing'
p1179
S'true'
p1180
ssS'name'
p1181
S'Arduino Robot Motor'
p1182
sg104
S'/usr/share/arduino/hardware/arduino'
p1183
saatp1184
Rp1185
(dp1186
S'default'
p1187
S'uno'
p1188
sbtp1189
a(S'used_libs'
p1190
(lp1191
S'/usr/share/arduino/libraries/EEPROM'
p1192
aS'/usr/share/arduino/hardware/arduino/cores/arduino'
p1193
atp1194
a(S'make'
p1195
S'/usr/share/arduino/hardware/tools/avr/bin/make'
p1196
tp1197
a(S'arduino_libraries_dir'
p1198
S'/usr/share/arduino/libraries'
p1199
tp1200
a(S'cc'
p1201
S'/usr/share/arduino/hardware/tools/avr/bin/avr-gcc'
p1202
tp1203
a(S'cflags'
p1204
g2
(g3
g4
(lp1205
tp1206
Rp1207
tp1208
a(S'cxxflags'
p1209
g2
(g3
g4
(lp1210
S'-fno-exceptions'
p1211
atp1212
Rp1213
tp1214
a(S'arduino_variants_dir'
p1215
S'/usr/share/arduino/hardware/arduino/variants'
p1216
tp1217
a(S'serial'
p1218
S'/usr/bin/picocom'
p1219
tp1220
a(S'stty'
p1221
S'/bin/stty'
p1222
tp1223
a(S'version.txt'
p1224
S'/usr/share/arduino/lib/version.txt'
p1225
tp1226
a(S'arduino_core_dir'
p1227
g1193
tp1228
a(S'boards.txt'
p1229
(lp1230
S'/usr/share/arduino/hardware/arduino/boards.txt'
p1231
atp1232
a(S'avrdude.conf'
p1233
S'/usr/share/arduino/hardware/tools/avrdude.conf'
p1234
tp1235
a(S'deps'
p1236
g2
(g3
g4
(lp1237
S'.build/atmega328/src/dependencies.d'
p1238
aS'.build/atmega328/arduino/dependencies.d'
p1239
aS'.build/atmega328/EEPROM/dependencies.d'
p1240
atp1241
Rp1242
tp1243
a.