(lp0
(S'cppflags'
p1
ccopy_reg
_reconstructor
p2
(cino.utils
SpaceList
p3
c__builtin__
list
p4
(lp5
S'-mmcu=atmega328p'
p6
aS'-DF_CPU=16000000L'
p7
aS'-DARDUINO=105'
p8
aS'-I/usr/share/arduino/hardware/arduino/cores/arduino'
p9
aS'-ffunction-sections'
p10
aS'-fdata-sections'
p11
aS'-g'
p12
aS'-Os'
p13
aS'-w'
p14
aS'-I/usr/share/arduino/hardware/arduino/variants/standard'
p15
aS'-I/usr/share/arduino/libraries/EEPROM'
p16
aS'-I/usr/share/arduino/hardware/arduino/cores/arduino'
p17
aS'-I/usr/share/arduino/hardware/arduino/cores/arduino/avr-libc'
p18
atp19
Rp20
tp21
a(S'cxx'
p22
S'/usr/share/arduino/hardware/tools/avr/bin/avr-g++'
p23
tp24
a(S'arduino_libraries_dir'
p25
S'/usr/share/arduino/libraries'
p26
tp27
a(S'avrdude'
p28
S'/usr/share/arduino/hardware/tools/avrdude'
p29
tp30
a(S'ar'
p31
S'/usr/share/arduino/hardware/tools/avr/bin/avr-ar'
p32
tp33
a(S'names'
p34
(dp35
S'cpp'
p36
S'%s.cpp'
p37
sS'obj'
p38
S'%s.o'
p39
sS'lib'
p40
S'lib%s.a'
p41
sS'deps'
p42
S'%s.d'
p43
stp44
a(S'ldflags'
p45
g2
(g3
g4
(lp46
g6
aS'-Wl,-Os'
p47
aS'-Wl,--gc-sections'
p48
atp49
Rp50
tp51
a(S'arduino_lib_version'
p52
g2
(cino.environment
Version
p53
c__builtin__
tuple
p54
(I1
I0
I5
tp55
tp56
Rp57
tp58
a(S'objcopy'
p59
S'/usr/share/arduino/hardware/tools/avr/bin/avr-objcopy'
p60
tp61
a(S'board_models'
p62
cino.environment
BoardModels
p63
((lp64
(lp65
S'uno'
p66
a(dp67
S'_coredir'
p68
S'/usr/share/arduino/hardware/arduino'
p69
sS'bootloader'
p70
(dp71
S'extended_fuses'
p72
S'0x05'
p73
sS'high_fuses'
p74
S'0xde'
p75
sS'low_fuses'
p76
S'0xff'
p77
sS'lock_bits'
p78
S'0x0F'
p79
sS'file'
p80
S'optiboot_atmega328.hex'
p81
sS'path'
p82
S'optiboot'
p83
sS'unlock_bits'
p84
S'0x3F'
p85
ssS'upload'
p86
(dp87
S'protocol'
p88
S'arduino'
p89
sS'maximum_size'
p90
S'32256'
p91
sS'speed'
p92
S'115200'
p93
ssS'name'
p94
S'Arduino Uno'
p95
sS'build'
p96
(dp97
S'core'
p98
S'arduino'
p99
sS'mcu'
p100
S'atmega328p'
p101
sS'f_cpu'
p102
S'16000000L'
p103
sS'variant'
p104
S'standard'
p105
ssaa(lp106
S'atmega328'
p107
a(dp108
g68
S'/usr/share/arduino/hardware/arduino'
p109
sS'bootloader'
p110
(dp111
S'extended_fuses'
p112
S'0x05'
p113
sS'high_fuses'
p114
S'0xDA'
p115
sS'low_fuses'
p116
S'0xFF'
p117
sS'lock_bits'
p118
S'0x0F'
p119
sS'file'
p120
S'ATmegaBOOT_168_atmega328.hex'
p121
sS'path'
p122
S'atmega'
p123
sS'unlock_bits'
p124
S'0x3F'
p125
ssS'upload'
p126
(dp127
S'protocol'
p128
S'arduino'
p129
sS'maximum_size'
p130
S'30720'
p131
sS'speed'
p132
S'57600'
p133
ssS'name'
p134
S'Arduino Duemilanove w/ ATmega328'
p135
sS'build'
p136
(dp137
S'core'
p138
S'arduino'
p139
sS'mcu'
p140
S'atmega328p'
p141
sS'f_cpu'
p142
S'16000000L'
p143
sS'variant'
p144
S'standard'
p145
ssaa(lp146
S'diecimila'
p147
a(dp148
g68
S'/usr/share/arduino/hardware/arduino'
p149
sS'bootloader'
p150
(dp151
S'extended_fuses'
p152
S'0x00'
p153
sS'high_fuses'
p154
S'0xdd'
p155
sS'low_fuses'
p156
S'0xff'
p157
sS'lock_bits'
p158
S'0x0F'
p159
sS'file'
p160
S'ATmegaBOOT_168_diecimila.hex'
p161
sS'path'
p162
S'atmega'
p163
sS'unlock_bits'
p164
S'0x3F'
p165
ssS'upload'
p166
(dp167
S'protocol'
p168
S'arduino'
p169
sS'maximum_size'
p170
S'14336'
p171
sS'speed'
p172
S'19200'
p173
ssS'name'
p174
S'Arduino Diecimila or Duemilanove w/ ATmega168'
p175
sS'build'
p176
(dp177
S'core'
p178
S'arduino'
p179
sS'mcu'
p180
S'atmega168'
p181
sS'f_cpu'
p182
S'16000000L'
p183
sS'variant'
p184
S'standard'
p185
ssaa(lp186
S'nano328'
p187
a(dp188
g68
S'/usr/share/arduino/hardware/arduino'
p189
sS'bootloader'
p190
(dp191
S'extended_fuses'
p192
S'0x05'
p193
sS'high_fuses'
p194
S'0xDA'
p195
sS'low_fuses'
p196
S'0xFF'
p197
sS'lock_bits'
p198
S'0x0F'
p199
sS'file'
p200
S'ATmegaBOOT_168_atmega328.hex'
p201
sS'path'
p202
S'atmega'
p203
sS'unlock_bits'
p204
S'0x3F'
p205
ssS'upload'
p206
(dp207
S'protocol'
p208
S'arduino'
p209
sS'maximum_size'
p210
S'30720'
p211
sS'speed'
p212
S'57600'
p213
ssS'name'
p214
S'Arduino Nano w/ ATmega328'
p215
sS'build'
p216
(dp217
S'core'
p218
S'arduino'
p219
sS'mcu'
p220
S'atmega328p'
p221
sS'f_cpu'
p222
S'16000000L'
p223
sS'variant'
p224
S'eightanaloginputs'
p225
ssaa(lp226
S'nano'
p227
a(dp228
g68
S'/usr/share/arduino/hardware/arduino'
p229
sS'bootloader'
p230
(dp231
S'extended_fuses'
p232
S'0x00'
p233
sS'high_fuses'
p234
S'0xdd'
p235
sS'low_fuses'
p236
S'0xff'
p237
sS'lock_bits'
p238
S'0x0F'
p239
sS'file'
p240
S'ATmegaBOOT_168_diecimila.hex'
p241
sS'path'
p242
S'atmega'
p243
sS'unlock_bits'
p244
S'0x3F'
p245
ssS'upload'
p246
(dp247
S'protocol'
p248
S'arduino'
p249
sS'maximum_size'
p250
S'14336'
p251
sS'speed'
p252
S'19200'
p253
ssS'name'
p254
S'Arduino Nano w/ ATmega168'
p255
sS'build'
p256
(dp257
S'core'
p258
S'arduino'
p259
sS'mcu'
p260
S'atmega168'
p261
sS'f_cpu'
p262
S'16000000L'
p263
sS'variant'
p264
S'eightanaloginputs'
p265
ssaa(lp266
S'mega2560'
p267
a(dp268
g68
S'/usr/share/arduino/hardware/arduino'
p269
sS'bootloader'
p270
(dp271
S'extended_fuses'
p272
S'0xFD'
p273
sS'high_fuses'
p274
S'0xD8'
p275
sS'low_fuses'
p276
S'0xFF'
p277
sS'lock_bits'
p278
S'0x0F'
p279
sS'file'
p280
S'stk500boot_v2_mega2560.hex'
p281
sS'path'
p282
S'stk500v2'
p283
sS'unlock_bits'
p284
S'0x3F'
p285
ssS'upload'
p286
(dp287
S'protocol'
p288
S'wiring'
p289
sS'maximum_size'
p290
S'258048'
p291
sS'speed'
p292
S'115200'
p293
ssS'name'
p294
S'Arduino Mega 2560 or Mega ADK'
p295
sS'build'
p296
(dp297
S'core'
p298
S'arduino'
p299
sS'mcu'
p300
S'atmega2560'
p301
sS'f_cpu'
p302
S'16000000L'
p303
sS'variant'
p304
S'mega'
p305
ssaa(lp306
S'mega'
p307
a(dp308
g68
S'/usr/share/arduino/hardware/arduino'
p309
sS'bootloader'
p310
(dp311
S'extended_fuses'
p312
S'0xF5'
p313
sS'high_fuses'
p314
S'0xDA'
p315
sS'low_fuses'
p316
S'0xFF'
p317
sS'lock_bits'
p318
S'0x0F'
p319
sS'file'
p320
S'ATmegaBOOT_168_atmega1280.hex'
p321
sS'path'
p322
S'atmega'
p323
sS'unlock_bits'
p324
S'0x3F'
p325
ssS'upload'
p326
(dp327
S'protocol'
p328
S'arduino'
p329
sS'maximum_size'
p330
S'126976'
p331
sS'speed'
p332
S'57600'
p333
ssS'name'
p334
S'Arduino Mega (ATmega1280)'
p335
sS'build'
p336
(dp337
S'core'
p338
S'arduino'
p339
sS'mcu'
p340
S'atmega1280'
p341
sS'f_cpu'
p342
S'16000000L'
p343
sS'variant'
p344
S'mega'
p345
ssaa(lp346
S'leonardo'
p347
a(dp348
g68
S'/usr/share/arduino/hardware/arduino'
p349
sS'bootloader'
p350
(dp351
S'extended_fuses'
p352
S'0xcb'
p353
sS'high_fuses'
p354
S'0xd8'
p355
sS'low_fuses'
p356
S'0xff'
p357
sS'lock_bits'
p358
S'0x2F'
p359
sS'file'
p360
S'Caterina-Leonardo.hex'
p361
sS'path'
p362
S'caterina'
p363
sS'unlock_bits'
p364
S'0x3F'
p365
ssS'upload'
p366
(dp367
S'protocol'
p368
S'avr109'
p369
sS'maximum_size'
p370
S'28672'
p371
sS'speed'
p372
S'57600'
p373
sS'disable_flushing'
p374
S'true'
p375
ssS'name'
p376
S'Arduino Leonardo'
p377
sS'build'
p378
(dp379
S'core'
p380
S'arduino'
p381
sS'f_cpu'
p382
S'16000000L'
p383
sS'vid'
p384
S'0x2341'
p385
sS'pid'
p386
S'0x8036'
p387
sS'variant'
p388
S'leonardo'
p389
sS'mcu'
p390
S'atmega32u4'
p391
ssaa(lp392
S'esplora'
p393
a(dp394
g68
S'/usr/share/arduino/hardware/arduino'
p395
sS'bootloader'
p396
(dp397
S'extended_fuses'
p398
S'0xcb'
p399
sS'high_fuses'
p400
S'0xd8'
p401
sS'low_fuses'
p402
S'0xff'
p403
sS'lock_bits'
p404
S'0x2F'
p405
sS'file'
p406
S'Caterina-Esplora.hex'
p407
sS'path'
p408
S'caterina'
p409
sS'unlock_bits'
p410
S'0x3F'
p411
ssS'upload'
p412
(dp413
S'protocol'
p414
S'avr109'
p415
sS'maximum_size'
p416
S'28672'
p417
sS'speed'
p418
S'57600'
p419
sS'disable_flushing'
p420
S'true'
p421
ssS'name'
p422
S'Arduino Esplora'
p423
sS'build'
p424
(dp425
S'core'
p426
S'arduino'
p427
sS'f_cpu'
p428
S'16000000L'
p429
sS'vid'
p430
S'0x2341'
p431
sS'pid'
p432
S'0x803C'
p433
sS'variant'
p434
S'leonardo'
p435
sS'mcu'
p436
S'atmega32u4'
p437
ssaa(lp438
S'micro'
p439
a(dp440
g68
S'/usr/share/arduino/hardware/arduino'
p441
sS'bootloader'
p442
(dp443
S'extended_fuses'
p444
S'0xcb'
p445
sS'high_fuses'
p446
S'0xd8'
p447
sS'low_fuses'
p448
S'0xff'
p449
sS'lock_bits'
p450
S'0x2F'
p451
sS'file'
p452
S'Caterina-Micro.hex'
p453
sS'path'
p454
S'caterina'
p455
sS'unlock_bits'
p456
S'0x3F'
p457
ssS'upload'
p458
(dp459
S'protocol'
p460
S'avr109'
p461
sS'maximum_size'
p462
S'28672'
p463
sS'speed'
p464
S'57600'
p465
sS'disable_flushing'
p466
S'true'
p467
ssS'name'
p468
S'Arduino Micro'
p469
sS'build'
p470
(dp471
S'core'
p472
S'arduino'
p473
sS'f_cpu'
p474
S'16000000L'
p475
sS'vid'
p476
S'0x2341'
p477
sS'pid'
p478
S'0x8037'
p479
sS'variant'
p480
S'micro'
p481
sS'mcu'
p482
S'atmega32u4'
p483
ssaa(lp484
S'mini328'
p485
a(dp486
g68
S'/usr/share/arduino/hardware/arduino'
p487
sS'bootloader'
p488
(dp489
S'extended_fuses'
p490
S'0x05'
p491
sS'high_fuses'
p492
S'0xd8'
p493
sS'low_fuses'
p494
S'0xff'
p495
sS'lock_bits'
p496
S'0x0F'
p497
sS'file'
p498
S'optiboot_atmega328-Mini.hex'
p499
sS'path'
p500
S'optiboot'
p501
sS'unlock_bits'
p502
S'0x3F'
p503
ssS'upload'
p504
(dp505
S'protocol'
p506
S'arduino'
p507
sS'maximum_size'
p508
S'28672'
p509
sS'speed'
p510
S'115200'
p511
ssS'name'
p512
S'Arduino Mini w/ ATmega328'
p513
sS'build'
p514
(dp515
S'core'
p516
S'arduino'
p517
sS'mcu'
p518
S'atmega328p'
p519
sS'f_cpu'
p520
S'16000000L'
p521
sS'variant'
p522
S'eightanaloginputs'
p523
ssaa(lp524
S'mini'
p525
a(dp526
g68
S'/usr/share/arduino/hardware/arduino'
p527
sS'bootloader'
p528
(dp529
S'extended_fuses'
p530
S'0x00'
p531
sS'high_fuses'
p532
S'0xdd'
p533
sS'low_fuses'
p534
S'0xff'
p535
sS'lock_bits'
p536
S'0x0F'
p537
sS'file'
p538
S'ATmegaBOOT_168_ng.hex'
p539
sS'path'
p540
S'atmega'
p541
sS'unlock_bits'
p542
S'0x3F'
p543
ssS'upload'
p544
(dp545
S'protocol'
p546
S'arduino'
p547
sS'maximum_size'
p548
S'14336'
p549
sS'speed'
p550
S'19200'
p551
ssS'name'
p552
S'Arduino Mini w/ ATmega168'
p553
sS'build'
p554
(dp555
S'core'
p556
S'arduino'
p557
sS'mcu'
p558
S'atmega168'
p559
sS'f_cpu'
p560
S'16000000L'
p561
sS'variant'
p562
S'eightanaloginputs'
p563
ssaa(lp564
S'ethernet'
p565
a(dp566
g68
S'/usr/share/arduino/hardware/arduino'
p567
sS'bootloader'
p568
(dp569
S'extended_fuses'
p570
S'0x05'
p571
sS'high_fuses'
p572
S'0xde'
p573
sS'low_fuses'
p574
S'0xff'
p575
sS'lock_bits'
p576
S'0x0F'
p577
sS'file'
p578
S'optiboot_atmega328.hex'
p579
sS'path'
p580
S'optiboot'
p581
sS'unlock_bits'
p582
S'0x3F'
p583
ssS'upload'
p584
(dp585
S'protocol'
p586
S'arduino'
p587
sS'maximum_size'
p588
S'32256'
p589
sS'speed'
p590
S'115200'
p591
ssS'name'
p592
S'Arduino Ethernet'
p593
sS'build'
p594
(dp595
S'variant'
p596
S'standard'
p597
sS'mcu'
p598
S'atmega328p'
p599
sS'f_cpu'
p600
S'16000000L'
p601
sS'core'
p602
S'arduino'
p603
ssaa(lp604
S'fio'
p605
a(dp606
g68
S'/usr/share/arduino/hardware/arduino'
p607
sS'bootloader'
p608
(dp609
S'extended_fuses'
p610
S'0x05'
p611
sS'high_fuses'
p612
S'0xDA'
p613
sS'low_fuses'
p614
S'0xFF'
p615
sS'lock_bits'
p616
S'0x0F'
p617
sS'file'
p618
S'ATmegaBOOT_168_atmega328_pro_8MHz.hex'
p619
sS'path'
p620
S'arduino:atmega'
p621
sS'unlock_bits'
p622
S'0x3F'
p623
ssS'upload'
p624
(dp625
S'protocol'
p626
S'arduino'
p627
sS'maximum_size'
p628
S'30720'
p629
sS'speed'
p630
S'57600'
p631
ssS'name'
p632
S'Arduino Fio'
p633
sS'build'
p634
(dp635
S'core'
p636
S'arduino'
p637
sS'mcu'
p638
S'atmega328p'
p639
sS'f_cpu'
p640
S'8000000L'
p641
sS'variant'
p642
S'eightanaloginputs'
p643
ssaa(lp644
S'bt328'
p645
a(dp646
g68
S'/usr/share/arduino/hardware/arduino'
p647
sS'bootloader'
p648
(dp649
S'extended_fuses'
p650
S'0x05'
p651
sS'high_fuses'
p652
S'0xd8'
p653
sS'low_fuses'
p654
S'0xff'
p655
sS'lock_bits'
p656
S'0x0F'
p657
sS'file'
p658
S'ATmegaBOOT_168_atmega328_bt.hex'
p659
sS'path'
p660
S'bt'
p661
sS'unlock_bits'
p662
S'0x3F'
p663
ssS'upload'
p664
(dp665
S'protocol'
p666
S'arduino'
p667
sS'maximum_size'
p668
S'28672'
p669
sS'speed'
p670
S'19200'
p671
sS'disable_flushing'
p672
S'true'
p673
ssS'name'
p674
S'Arduino BT w/ ATmega328'
p675
sS'build'
p676
(dp677
S'core'
p678
S'arduino'
p679
sS'mcu'
p680
S'atmega328p'
p681
sS'f_cpu'
p682
S'16000000L'
p683
sS'variant'
p684
S'eightanaloginputs'
p685
ssaa(lp686
S'bt'
p687
a(dp688
g68
S'/usr/share/arduino/hardware/arduino'
p689
sS'bootloader'
p690
(dp691
S'extended_fuses'
p692
S'0x00'
p693
sS'high_fuses'
p694
S'0xdd'
p695
sS'low_fuses'
p696
S'0xff'
p697
sS'lock_bits'
p698
S'0x0F'
p699
sS'file'
p700
S'ATmegaBOOT_168.hex'
p701
sS'path'
p702
S'bt'
p703
sS'unlock_bits'
p704
S'0x3F'
p705
ssS'upload'
p706
(dp707
S'protocol'
p708
S'arduino'
p709
sS'maximum_size'
p710
S'14336'
p711
sS'speed'
p712
S'19200'
p713
sS'disable_flushing'
p714
S'true'
p715
ssS'name'
p716
S'Arduino BT w/ ATmega168'
p717
sS'build'
p718
(dp719
S'core'
p720
S'arduino'
p721
sS'mcu'
p722
S'atmega168'
p723
sS'f_cpu'
p724
S'16000000L'
p725
sS'variant'
p726
S'eightanaloginputs'
p727
ssaa(lp728
S'LilyPadUSB'
p729
a(dp730
g68
S'/usr/share/arduino/hardware/arduino'
p731
sS'bootloader'
p732
(dp733
S'extended_fuses'
p734
S'0xce'
p735
sS'high_fuses'
p736
S'0xd8'
p737
sS'low_fuses'
p738
S'0xff'
p739
sS'lock_bits'
p740
S'0x2F'
p741
sS'file'
p742
S'Caterina-LilyPadUSB.hex'
p743
sS'path'
p744
S'caterina-LilyPadUSB'
p745
sS'unlock_bits'
p746
S'0x3F'
p747
ssS'upload'
p748
(dp749
S'protocol'
p750
S'avr109'
p751
sS'maximum_size'
p752
S'28672'
p753
sS'speed'
p754
S'57600'
p755
sS'disable_flushing'
p756
S'true'
p757
ssS'name'
p758
S'LilyPad Arduino USB'
p759
sS'build'
p760
(dp761
S'core'
p762
S'arduino'
p763
sS'f_cpu'
p764
S'8000000L'
p765
sS'vid'
p766
S'0x1B4F'
p767
sS'pid'
p768
S'0x9208'
p769
sS'variant'
p770
S'leonardo'
p771
sS'mcu'
p772
S'atmega32u4'
p773
ssaa(lp774
S'lilypad328'
p775
a(dp776
g68
S'/usr/share/arduino/hardware/arduino'
p777
sS'bootloader'
p778
(dp779
S'extended_fuses'
p780
S'0x05'
p781
sS'high_fuses'
p782
S'0xDA'
p783
sS'low_fuses'
p784
S'0xFF'
p785
sS'lock_bits'
p786
S'0x0F'
p787
sS'file'
p788
S'ATmegaBOOT_168_atmega328_pro_8MHz.hex'
p789
sS'path'
p790
S'atmega'
p791
sS'unlock_bits'
p792
S'0x3F'
p793
ssS'upload'
p794
(dp795
S'protocol'
p796
S'arduino'
p797
sS'maximum_size'
p798
S'30720'
p799
sS'speed'
p800
S'57600'
p801
ssS'name'
p802
S'LilyPad Arduino w/ ATmega328'
p803
sS'build'
p804
(dp805
S'core'
p806
S'arduino'
p807
sS'mcu'
p808
S'atmega328p'
p809
sS'f_cpu'
p810
S'8000000L'
p811
sS'variant'
p812
S'standard'
p813
ssaa(lp814
S'lilypad'
p815
a(dp816
g68
S'/usr/share/arduino/hardware/arduino'
p817
sS'bootloader'
p818
(dp819
S'extended_fuses'
p820
S'0x00'
p821
sS'high_fuses'
p822
S'0xdd'
p823
sS'low_fuses'
p824
S'0xe2'
p825
sS'lock_bits'
p826
S'0x0F'
p827
sS'file'
p828
S'LilyPadBOOT_168.hex'
p829
sS'path'
p830
S'lilypad'
p831
sS'unlock_bits'
p832
S'0x3F'
p833
ssS'upload'
p834
(dp835
S'protocol'
p836
S'arduino'
p837
sS'maximum_size'
p838
S'14336'
p839
sS'speed'
p840
S'19200'
p841
ssS'name'
p842
S'LilyPad Arduino w/ ATmega168'
p843
sS'build'
p844
(dp845
S'core'
p846
S'arduino'
p847
sS'mcu'
p848
S'atmega168'
p849
sS'f_cpu'
p850
S'8000000L'
p851
sS'variant'
p852
S'standard'
p853
ssaa(lp854
S'pro5v328'
p855
a(dp856
g68
S'/usr/share/arduino/hardware/arduino'
p857
sS'bootloader'
p858
(dp859
S'extended_fuses'
p860
S'0x05'
p861
sS'high_fuses'
p862
S'0xDA'
p863
sS'low_fuses'
p864
S'0xFF'
p865
sS'lock_bits'
p866
S'0x0F'
p867
sS'file'
p868
S'ATmegaBOOT_168_atmega328.hex'
p869
sS'path'
p870
S'atmega'
p871
sS'unlock_bits'
p872
S'0x3F'
p873
ssS'upload'
p874
(dp875
S'protocol'
p876
S'arduino'
p877
sS'maximum_size'
p878
S'30720'
p879
sS'speed'
p880
S'57600'
p881
ssS'name'
p882
S'Arduino Pro or Pro Mini (5V, 16 MHz) w/ ATmega328'
p883
sS'build'
p884
(dp885
S'core'
p886
S'arduino'
p887
sS'mcu'
p888
S'atmega328p'
p889
sS'f_cpu'
p890
S'16000000L'
p891
sS'variant'
p892
S'standard'
p893
ssaa(lp894
S'pro5v'
p895
a(dp896
g68
S'/usr/share/arduino/hardware/arduino'
p897
sS'bootloader'
p898
(dp899
S'extended_fuses'
p900
S'0x00'
p901
sS'high_fuses'
p902
S'0xdd'
p903
sS'low_fuses'
p904
S'0xff'
p905
sS'lock_bits'
p906
S'0x0F'
p907
sS'file'
p908
S'ATmegaBOOT_168_diecimila.hex'
p909
sS'path'
p910
S'atmega'
p911
sS'unlock_bits'
p912
S'0x3F'
p913
ssS'upload'
p914
(dp915
S'protocol'
p916
S'arduino'
p917
sS'maximum_size'
p918
S'14336'
p919
sS'speed'
p920
S'19200'
p921
ssS'name'
p922
S'Arduino Pro or Pro Mini (5V, 16 MHz) w/ ATmega168'
p923
sS'build'
p924
(dp925
S'core'
p926
S'arduino'
p927
sS'mcu'
p928
S'atmega168'
p929
sS'f_cpu'
p930
S'16000000L'
p931
sS'variant'
p932
S'standard'
p933
ssaa(lp934
S'pro328'
p935
a(dp936
g68
S'/usr/share/arduino/hardware/arduino'
p937
sS'bootloader'
p938
(dp939
S'extended_fuses'
p940
S'0x05'
p941
sS'high_fuses'
p942
S'0xDA'
p943
sS'low_fuses'
p944
S'0xFF'
p945
sS'lock_bits'
p946
S'0x0F'
p947
sS'file'
p948
S'ATmegaBOOT_168_atmega328_pro_8MHz.hex'
p949
sS'path'
p950
S'atmega'
p951
sS'unlock_bits'
p952
S'0x3F'
p953
ssS'upload'
p954
(dp955
S'protocol'
p956
S'arduino'
p957
sS'maximum_size'
p958
S'30720'
p959
sS'speed'
p960
S'57600'
p961
ssS'name'
p962
S'Arduino Pro or Pro Mini (3.3V, 8 MHz) w/ ATmega328'
p963
sS'build'
p964
(dp965
S'core'
p966
S'arduino'
p967
sS'mcu'
p968
S'atmega328p'
p969
sS'f_cpu'
p970
S'8000000L'
p971
sS'variant'
p972
S'standard'
p973
ssaa(lp974
S'pro'
p975
a(dp976
g68
S'/usr/share/arduino/hardware/arduino'
p977
sS'bootloader'
p978
(dp979
S'extended_fuses'
p980
S'0x00'
p981
sS'high_fuses'
p982
S'0xdd'
p983
sS'low_fuses'
p984
S'0xc6'
p985
sS'lock_bits'
p986
S'0x0F'
p987
sS'file'
p988
S'ATmegaBOOT_168_pro_8MHz.hex'
p989
sS'path'
p990
S'atmega'
p991
sS'unlock_bits'
p992
S'0x3F'
p993
ssS'upload'
p994
(dp995
S'protocol'
p996
S'arduino'
p997
sS'maximum_size'
p998
S'14336'
p999
sS'speed'
p1000
S'19200'
p1001
ssS'name'
p1002
S'Arduino Pro or Pro Mini (3.3V, 8 MHz) w/ ATmega168'
p1003
sS'build'
p1004
(dp1005
S'core'
p1006
S'arduino'
p1007
sS'mcu'
p1008
S'atmega168'
p1009
sS'f_cpu'
p1010
S'8000000L'
p1011
sS'variant'
p1012
S'standard'
p1013
ssaa(lp1014
S'atmega168'
p1015
a(dp1016
g68
S'/usr/share/arduino/hardware/arduino'
p1017
sS'bootloader'
p1018
(dp1019
S'extended_fuses'
p1020
S'0x00'
p1021
sS'high_fuses'
p1022
S'0xdd'
p1023
sS'low_fuses'
p1024
S'0xff'
p1025
sS'lock_bits'
p1026
S'0x0F'
p1027
sS'file'
p1028
S'ATmegaBOOT_168_ng.hex'
p1029
sS'path'
p1030
S'atmega'
p1031
sS'unlock_bits'
p1032
S'0x3F'
p1033
ssS'upload'
p1034
(dp1035
S'protocol'
p1036
S'arduino'
p1037
sS'maximum_size'
p1038
S'14336'
p1039
sS'speed'
p1040
S'19200'
p1041
ssS'name'
p1042
S'Arduino NG or older w/ ATmega168'
p1043
sS'build'
p1044
(dp1045
S'core'
p1046
S'arduino'
p1047
sS'mcu'
p1048
S'atmega168'
p1049
sS'f_cpu'
p1050
S'16000000L'
p1051
sS'variant'
p1052
S'standard'
p1053
ssaa(lp1054
S'atmega8'
p1055
a(dp1056
g68
S'/usr/share/arduino/hardware/arduino'
p1057
sS'bootloader'
p1058
(dp1059
S'high_fuses'
p1060
S'0xca'
p1061
sS'low_fuses'
p1062
S'0xdf'
p1063
sS'lock_bits'
p1064
S'0x0F'
p1065
sS'file'
p1066
S'ATmegaBOOT-prod-firmware-2009-11-07.hex'
p1067
sS'path'
p1068
S'atmega8'
p1069
sS'unlock_bits'
p1070
S'0x3F'
p1071
ssS'upload'
p1072
(dp1073
S'protocol'
p1074
S'arduino'
p1075
sS'maximum_size'
p1076
S'7168'
p1077
sS'speed'
p1078
S'19200'
p1079
ssS'name'
p1080
S'Arduino NG or older w/ ATmega8'
p1081
sS'build'
p1082
(dp1083
S'core'
p1084
S'arduino'
p1085
sS'mcu'
p1086
S'atmega8'
p1087
sS'f_cpu'
p1088
S'16000000L'
p1089
sS'variant'
p1090
S'standard'
p1091
ssaa(lp1092
S'robotControl'
p1093
a(dp1094
g68
S'/usr/share/arduino/hardware/arduino'
p1095
sS'bootloader'
p1096
(dp1097
S'extended_fuses'
p1098
S'0xcb'
p1099
sS'high_fuses'
p1100
S'0xd8'
p1101
sS'low_fuses'
p1102
S'0xff'
p1103
sS'lock_bits'
p1104
S'0x2F'
p1105
sS'file'
p1106
S'Caterina-Robot-Control.hex'
p1107
sS'path'
p1108
S'caterina-Arduino_Robot'
p1109
sS'unlock_bits'
p1110
S'0x3F'
p1111
ssS'upload'
p1112
(dp1113
S'protocol'
p1114
S'avr109'
p1115
sS'maximum_size'
p1116
S'28672'
p1117
sS'speed'
p1118
S'57600'
p1119
sS'disable_flushing'
p1120
S'true'
p1121
ssS'name'
p1122
S'Arduino Robot Control'
p1123
sS'build'
p1124
(dp1125
S'core'
p1126
S'robot'
p1127
sS'f_cpu'
p1128
S'16000000L'
p1129
sS'vid'
p1130
S'0x2341'
p1131
sS'pid'
p1132
S'0x8038'
p1133
sS'variant'
p1134
S'robot_control'
p1135
sS'mcu'
p1136
S'atmega32u4'
p1137
ssaa(lp1138
S'robotMotor'
p1139
a(dp1140
g68
S'/usr/share/arduino/hardware/arduino'
p1141
sS'bootloader'
p1142
(dp1143
S'extended_fuses'
p1144
S'0xcb'
p1145
sS'high_fuses'
p1146
S'0xd8'
p1147
sS'low_fuses'
p1148
S'0xff'
p1149
sS'lock_bits'
p1150
S'0x2F'
p1151
sS'file'
p1152
S'Caterina-Robot-Motor.hex'
p1153
sS'path'
p1154
S'caterina-Arduino_Robot'
p1155
sS'unlock_bits'
p1156
S'0x3F'
p1157
ssS'upload'
p1158
(dp1159
S'protocol'
p1160
S'avr109'
p1161
sS'maximum_size'
p1162
S'28672'
p1163
sS'speed'
p1164
S'57600'
p1165
sS'disable_flushing'
p1166
S'true'
p1167
ssS'name'
p1168
S'Arduino Robot Motor'
p1169
sS'build'
p1170
(dp1171
S'core'
p1172
S'robot'
p1173
sS'f_cpu'
p1174
S'16000000L'
p1175
sS'vid'
p1176
S'0x2341'
p1177
sS'pid'
p1178
S'0x8039'
p1179
sS'variant'
p1180
S'robot_motor'
p1181
sS'mcu'
p1182
S'atmega32u4'
p1183
ssaatp1184
Rp1185
(dp1186
S'default'
p1187
S'uno'
p1188
sbtp1189
a(S'used_libs'
p1190
(lp1191
S'/usr/share/arduino/libraries/EEPROM'
p1192
aS'/usr/share/arduino/hardware/arduino/cores/arduino'
p1193
atp1194
a(S'make'
p1195
S'/usr/share/arduino/hardware/tools/avr/bin/make'
p1196
tp1197
a(S'build_dir'
p1198
S'.build/atmega328'
p1199
tp1200
a(S'cc'
p1201
S'/usr/share/arduino/hardware/tools/avr/bin/avr-gcc'
p1202
tp1203
a(S'cflags'
p1204
g2
(g3
g4
(lp1205
tp1206
Rp1207
tp1208
a(S'cxxflags'
p1209
g2
(g3
g4
(lp1210
S'-fno-exceptions'
p1211
atp1212
Rp1213
tp1214
a(S'arduino_variants_dir'
p1215
S'/usr/share/arduino/hardware/arduino/variants'
p1216
tp1217
a(S'serial'
p1218
S'/usr/bin/picocom'
p1219
tp1220
a(S'stty'
p1221
S'/bin/stty'
p1222
tp1223
a(S'version.txt'
p1224
S'/usr/share/arduino/lib/version.txt'
p1225
tp1226
a(S'arduino_core_dir'
p1227
g1193
tp1228
a(S'boards.txt'
p1229
(lp1230
S'/usr/share/arduino/hardware/arduino/boards.txt'
p1231
atp1232
a(S'avrdude.conf'
p1233
S'/usr/share/arduino/hardware/tools/avrdude.conf'
p1234
tp1235
a(S'deps'
p1236
g2
(g3
g4
(lp1237
S'.build/atmega328/src/dependencies.d'
p1238
aS'.build/atmega328/arduino/dependencies.d'
p1239
aS'.build/atmega328/EEPROM/dependencies.d'
p1240
atp1241
Rp1242
tp1243
a.